
lm35.elf:     file format elf32-littlenios2
lm35.elf
architecture: nios2:r1, flags 0x00000112:
EXEC_P, HAS_SYMS, D_PAGED
start address 0x00040230

Program Header:
    LOAD off    0x00001000 vaddr 0x00040000 paddr 0x00040000 align 2**12
         filesz 0x00000020 memsz 0x00000020 flags r-x
    LOAD off    0x00001020 vaddr 0x00040020 paddr 0x00040020 align 2**12
         filesz 0x00016ac0 memsz 0x00016ac0 flags r-x
    LOAD off    0x00017ae0 vaddr 0x00056ae0 paddr 0x0005865c align 2**12
         filesz 0x00001b7c memsz 0x00001b7c flags rw-
    LOAD off    0x0001a1d8 vaddr 0x0005a1d8 paddr 0x0005a1d8 align 2**12
         filesz 0x00000000 memsz 0x000001dc flags rw-

Sections:
Idx Name          Size      VMA       LMA       File off  Algn
  0 .entry        00000020  00040000  00040000  00001000  2**5
                  CONTENTS, ALLOC, LOAD, READONLY, CODE
  1 .exceptions   00000210  00040020  00040020  00001020  2**2
                  CONTENTS, ALLOC, LOAD, READONLY, CODE
  2 .text         00016500  00040230  00040230  00001230  2**2
                  CONTENTS, ALLOC, LOAD, READONLY, CODE
  3 .rodata       000003b0  00056730  00056730  00017730  2**2
                  CONTENTS, ALLOC, LOAD, READONLY, DATA
  4 .rwdata       00001b7c  00056ae0  0005865c  00017ae0  2**2
                  CONTENTS, ALLOC, LOAD, DATA, SMALL_DATA
  5 .bss          000001dc  0005a1d8  0005a1d8  0001a1d8  2**2
                  ALLOC, SMALL_DATA
  6 .RAM          00000000  0005a3b4  0005a3b4  0001965c  2**0
                  CONTENTS
  7 .comment      00000023  00000000  00000000  0001965c  2**0
                  CONTENTS, READONLY
  8 .debug_aranges 000010b8  00000000  00000000  00019680  2**3
                  CONTENTS, READONLY, DEBUGGING
  9 .debug_info   0002aa12  00000000  00000000  0001a738  2**0
                  CONTENTS, READONLY, DEBUGGING
 10 .debug_abbrev 0000aac6  00000000  00000000  0004514a  2**0
                  CONTENTS, READONLY, DEBUGGING
 11 .debug_line   0000de28  00000000  00000000  0004fc10  2**0
                  CONTENTS, READONLY, DEBUGGING
 12 .debug_frame  00002c38  00000000  00000000  0005da38  2**2
                  CONTENTS, READONLY, DEBUGGING
 13 .debug_str    0000492e  00000000  00000000  00060670  2**0
                  CONTENTS, READONLY, DEBUGGING
 14 .debug_loc    0001dfa7  00000000  00000000  00064f9e  2**0
                  CONTENTS, READONLY, DEBUGGING
 15 .debug_alt_sim_info 00000040  00000000  00000000  00082f48  2**2
                  CONTENTS, READONLY, DEBUGGING
 16 .debug_ranges 00001c68  00000000  00000000  00082f88  2**3
                  CONTENTS, READONLY, DEBUGGING
 17 .thread_model 00000003  00000000  00000000  00088bb2  2**0
                  CONTENTS, READONLY
 18 .cpu          00000003  00000000  00000000  00088bb5  2**0
                  CONTENTS, READONLY
 19 .qsys         00000001  00000000  00000000  00088bb8  2**0
                  CONTENTS, READONLY
 20 .simulation_enabled 00000001  00000000  00000000  00088bb9  2**0
                  CONTENTS, READONLY
 21 .sysid_hash   00000004  00000000  00000000  00088bba  2**0
                  CONTENTS, READONLY
 22 .sysid_base   00000004  00000000  00000000  00088bbe  2**0
                  CONTENTS, READONLY
 23 .sysid_time   00000004  00000000  00000000  00088bc2  2**0
                  CONTENTS, READONLY
 24 .stderr_dev   00000005  00000000  00000000  00088bc6  2**0
                  CONTENTS, READONLY
 25 .stdin_dev    00000005  00000000  00000000  00088bcb  2**0
                  CONTENTS, READONLY
 26 .stdout_dev   00000005  00000000  00000000  00088bd0  2**0
                  CONTENTS, READONLY
 27 .sopc_system_name 00000003  00000000  00000000  00088bd5  2**0
                  CONTENTS, READONLY
 28 .quartus_project_dir 00000031  00000000  00000000  00088bd8  2**0
                  CONTENTS, READONLY
 29 .jdi          000033f8  00000000  00000000  00088c09  2**0
                  CONTENTS, READONLY
 30 .sopcinfo     00066b5a  00000000  00000000  0008c001  2**0
                  CONTENTS, READONLY
SYMBOL TABLE:
00040000 l    d  .entry	00000000 .entry
00040020 l    d  .exceptions	00000000 .exceptions
00040230 l    d  .text	00000000 .text
00056730 l    d  .rodata	00000000 .rodata
00056ae0 l    d  .rwdata	00000000 .rwdata
0005a1d8 l    d  .bss	00000000 .bss
0005a3b4 l    d  .RAM	00000000 .RAM
00000000 l    d  .comment	00000000 .comment
00000000 l    d  .debug_aranges	00000000 .debug_aranges
00000000 l    d  .debug_info	00000000 .debug_info
00000000 l    d  .debug_abbrev	00000000 .debug_abbrev
00000000 l    d  .debug_line	00000000 .debug_line
00000000 l    d  .debug_frame	00000000 .debug_frame
00000000 l    d  .debug_str	00000000 .debug_str
00000000 l    d  .debug_loc	00000000 .debug_loc
00000000 l    d  .debug_alt_sim_info	00000000 .debug_alt_sim_info
00000000 l    d  .debug_ranges	00000000 .debug_ranges
00000000 l    df *ABS*	00000000 ../lm35_bsp//obj/HAL/src/crt0.o
00040268 l       .text	00000000 alt_after_alt_main
00000000 l    df *ABS*	00000000 alt_irq_handler.c
00000000 l    df *ABS*	00000000 alt_instruction_exception_entry.c
00000000 l    df *ABS*	00000000 hello_world.c
00000000 l    df *ABS*	00000000 lib2-divmod.c
00000000 l    df *ABS*	00000000 divsf3.c
00000000 l    df *ABS*	00000000 mulsf3.c
00000000 l    df *ABS*	00000000 fixsfsi.c
00000000 l    df *ABS*	00000000 floatsisf.c
00000000 l    df *ABS*	00000000 extendsfdf2.c
00000000 l    df *ABS*	00000000 libgcc2.c
00000000 l    df *ABS*	00000000 lib2-mul.c
00000000 l    df *ABS*	00000000 libgcc2.c
00000000 l    df *ABS*	00000000 printf.c
00000000 l    df *ABS*	00000000 putchar.c
00000000 l    df *ABS*	00000000 puts.c
00000000 l    df *ABS*	00000000 sprintf.c
00000000 l    df *ABS*	00000000 strlen.c
00000000 l    df *ABS*	00000000 vfprintf.c
000568be l     O .rodata	00000010 zeroes.4389
000568ce l     O .rodata	00000010 blanks.4388
00000000 l    df *ABS*	00000000 vfprintf.c
000568de l     O .rodata	00000010 zeroes.4404
00045d04 l     F .text	000000bc __sbprintf
000568ee l     O .rodata	00000010 blanks.4403
00000000 l    df *ABS*	00000000 wsetup.c
00000000 l    df *ABS*	00000000 dtoa.c
00045f14 l     F .text	00000228 quorem
00000000 l    df *ABS*	00000000 fflush.c
00000000 l    df *ABS*	00000000 findfp.c
00047a6c l     F .text	00000008 __fp_unlock
00047a80 l     F .text	0000019c __sinit.part.1
00047c1c l     F .text	00000008 __fp_lock
00000000 l    df *ABS*	00000000 mallocr.c
00000000 l    df *ABS*	00000000 fvwrite.c
00000000 l    df *ABS*	00000000 fwalk.c
00000000 l    df *ABS*	00000000 impure.c
00056aec l     O .rwdata	00000424 impure_data
00000000 l    df *ABS*	00000000 locale.c
00056f30 l     O .rwdata	00000020 lc_ctype_charset
00056f10 l     O .rwdata	00000020 lc_message_charset
00056f50 l     O .rwdata	00000038 lconv
00000000 l    df *ABS*	00000000 makebuf.c
00000000 l    df *ABS*	00000000 mallocr.c
00000000 l    df *ABS*	00000000 memchr.c
00000000 l    df *ABS*	00000000 memcpy.c
00000000 l    df *ABS*	00000000 memmove.c
00000000 l    df *ABS*	00000000 memset.c
00000000 l    df *ABS*	00000000 mprec.c
00056920 l     O .rodata	0000000c p05.2768
00000000 l    df *ABS*	00000000 putc.c
00000000 l    df *ABS*	00000000 mallocr.c
00000000 l    df *ABS*	00000000 s_fpclassify.c
00000000 l    df *ABS*	00000000 sbrkr.c
00000000 l    df *ABS*	00000000 stdio.c
00000000 l    df *ABS*	00000000 strcmp.c
00000000 l    df *ABS*	00000000 vfprintf.c
00056a44 l     O .rodata	00000010 zeroes.4333
00056a54 l     O .rodata	00000010 blanks.4332
00000000 l    df *ABS*	00000000 vfprintf.c
0004c7c8 l     F .text	000000fc __sprint_r.part.0
00056a64 l     O .rodata	00000010 zeroes.4349
0004de04 l     F .text	000000bc __sbprintf
00056a74 l     O .rodata	00000010 blanks.4348
00000000 l    df *ABS*	00000000 wbuf.c
00000000 l    df *ABS*	00000000 writer.c
00000000 l    df *ABS*	00000000 closer.c
00000000 l    df *ABS*	00000000 mallocr.c
00000000 l    df *ABS*	00000000 fclose.c
00000000 l    df *ABS*	00000000 fputwc.c
00000000 l    df *ABS*	00000000 fstatr.c
00000000 l    df *ABS*	00000000 int_errno.c
00000000 l    df *ABS*	00000000 isattyr.c
00000000 l    df *ABS*	00000000 lseekr.c
00000000 l    df *ABS*	00000000 readr.c
00000000 l    df *ABS*	00000000 wcrtomb.c
00000000 l    df *ABS*	00000000 wctomb_r.c
00000000 l    df *ABS*	00000000 libgcc2.c
00000000 l    df *ABS*	00000000 libgcc2.c
00000000 l    df *ABS*	00000000 adddf3.c
00000000 l    df *ABS*	00000000 divdf3.c
00000000 l    df *ABS*	00000000 eqdf2.c
00000000 l    df *ABS*	00000000 gedf2.c
00000000 l    df *ABS*	00000000 ledf2.c
00000000 l    df *ABS*	00000000 muldf3.c
00000000 l    df *ABS*	00000000 subdf3.c
00000000 l    df *ABS*	00000000 fixdfsi.c
00000000 l    df *ABS*	00000000 floatsidf.c
00000000 l    df *ABS*	00000000 floatunsidf.c
00000000 l    df *ABS*	00000000 alt_close.c
00051c0c l     F .text	0000003c alt_get_errno
00000000 l    df *ABS*	00000000 alt_dev.c
00051d20 l     F .text	0000002c alt_dev_null_write
00000000 l    df *ABS*	00000000 alt_errno.c
00000000 l    df *ABS*	00000000 alt_fstat.c
00051d4c l     F .text	0000003c alt_get_errno
00000000 l    df *ABS*	00000000 alt_isatty.c
00051e40 l     F .text	0000003c alt_get_errno
00000000 l    df *ABS*	00000000 alt_load.c
00051f28 l     F .text	00000068 alt_load_section
00000000 l    df *ABS*	00000000 alt_lseek.c
00052014 l     F .text	0000003c alt_get_errno
00000000 l    df *ABS*	00000000 alt_main.c
00000000 l    df *ABS*	00000000 alt_malloc_lock.c
00000000 l    df *ABS*	00000000 alt_read.c
000521f0 l     F .text	0000003c alt_get_errno
00000000 l    df *ABS*	00000000 alt_release_fd.c
00000000 l    df *ABS*	00000000 alt_sbrk.c
00058644 l     O .rwdata	00000004 heap_end
00000000 l    df *ABS*	00000000 alt_write.c
00052464 l     F .text	0000003c alt_get_errno
00000000 l    df *ABS*	00000000 alt_sys_init.c
000525a0 l     F .text	00000034 alt_dev_reg
00057538 l     O .rwdata	00000038 I2C
00057570 l     O .rwdata	00001060 DEBUG
000585d0 l     O .rwdata	0000002c RS232
00000000 l    df *ABS*	00000000 altera_avalon_i2c.c
00052688 l     F .text	00000110 optional_irq_callback
000527e8 l     F .text	0000009c alt_avalon_i2c_irq
00000000 l    df *ABS*	00000000 altera_avalon_jtag_uart_fd.c
00000000 l    df *ABS*	00000000 altera_avalon_jtag_uart_init.c
000544c4 l     F .text	0000020c altera_avalon_jtag_uart_irq
000546d0 l     F .text	000000a0 altera_avalon_jtag_uart_timeout
00000000 l    df *ABS*	00000000 altera_avalon_jtag_uart_ioctl.c
00000000 l    df *ABS*	00000000 altera_avalon_jtag_uart_read.c
00000000 l    df *ABS*	00000000 altera_avalon_jtag_uart_write.c
00000000 l    df *ABS*	00000000 altera_avalon_timer_sc.c
00054d08 l     F .text	00000078 alt_avalon_timer_sc_irq
00000000 l    df *ABS*	00000000 altera_up_avalon_rs232.c
00000000 l    df *ABS*	00000000 alt_alarm_start.c
00000000 l    df *ABS*	00000000 alt_busy_sleep.c
00000000 l    df *ABS*	00000000 alt_dcache_flush_all.c
00000000 l    df *ABS*	00000000 alt_dev_llist_insert.c
00055430 l     F .text	0000003c alt_get_errno
00000000 l    df *ABS*	00000000 alt_do_ctors.c
00000000 l    df *ABS*	00000000 alt_do_dtors.c
00000000 l    df *ABS*	00000000 alt_find_dev.c
00000000 l    df *ABS*	00000000 alt_icache_flush_all.c
00000000 l    df *ABS*	00000000 alt_iic.c
00000000 l    df *ABS*	00000000 alt_iic_isr_register.c
00000000 l    df *ABS*	00000000 alt_io_redirect.c
00055920 l     F .text	000000e4 alt_open_fd
00000000 l    df *ABS*	00000000 alt_irq_vars.c
00000000 l    df *ABS*	00000000 alt_open.c
00055a80 l     F .text	0000003c alt_get_errno
00055abc l     F .text	000000ec alt_file_locked
00000000 l    df *ABS*	00000000 alt_printf.c
00000000 l    df *ABS*	00000000 alt_putchar.c
00000000 l    df *ABS*	00000000 alt_tick.c
00000000 l    df *ABS*	00000000 altera_nios2_gen2_irq.c
00000000 l    df *ABS*	00000000 alt_find_file.c
00000000 l    df *ABS*	00000000 alt_get_fd.c
00000000 l    df *ABS*	00000000 atexit.c
00000000 l    df *ABS*	00000000 exit.c
00000000 l    df *ABS*	00000000 memcmp.c
00000000 l    df *ABS*	00000000 __atexit.c
00000000 l    df *ABS*	00000000 __call_atexit.c
00000000 l    df *ABS*	00000000 alt_exit.c
0005a224 g     O .bss	00000004 alt_instruction_exception_handler
00041508 g     F .text	00000018 putchar
0004a734 g     F .text	00000074 _mprec_log10
0004a820 g     F .text	0000008c __any_on
0004e510 g     F .text	00000054 _isatty_r
0005692c g     O .rodata	00000028 __mprec_tinytens
0005212c g     F .text	0000007c alt_main
00041520 g     F .text	000000c0 _puts_r
0005a2b4 g     O .bss	00000100 alt_irq
0004e564 g     F .text	00000060 _lseek_r
0005865c g       *ABS*	00000000 __flash_rwdata_start
00050648 g     F .text	00000088 .hidden __eqdf2
0005a3b4 g       *ABS*	00000000 __alt_heap_start
000414c4 g     F .text	0000003c printf
0004e624 g     F .text	0000009c _wcrtomb_r
0004b118 g     F .text	0000005c __sseek
00047dcc g     F .text	00000010 __sinit
0004dec0 g     F .text	00000140 __swbuf_r
000488a0 g     F .text	0000007c _setlocale_r
00047c24 g     F .text	00000078 __sfmoreglue
00052ee0 g     F .text	000000a8 alt_avalon_i2c_rx_read
0005a1dc g     O .bss	00000004 ADC_A0
000521cc g     F .text	00000024 __malloc_unlock
0005502c g     F .text	00000090 alt_up_rs232_read_fd
000408f4 g     F .text	00000440 .hidden __divsf3
000540f8 g     F .text	00000044 alt_avalon_i2c_enabled_ints_get
00052c64 g     F .text	00000094 alt_avalon_i2c_master_config_speed_get
00049570 g     F .text	0000015c memmove
00047db4 g     F .text	00000018 _cleanup
00053948 g     F .text	0000020c alt_avalon_i2c_master_transmit_using_interrupts
000497f4 g     F .text	000000a8 _Balloc
00041164 g     F .text	00000070 .hidden __fixsfsi
000506d0 g     F .text	000000dc .hidden __gtdf2
00056110 g     F .text	00000024 altera_nios2_gen2_irq_init
00040000 g     F .entry	0000000c __reset
00040020 g       *ABS*	00000000 __flash_exceptions_start
000585fd g     O .rwdata	00000001 RegisterAddr
0004e4b4 g     F .text	0000005c _fstat_r
0005a208 g     O .bss	00000004 errno
0004b094 g     F .text	00000008 __seofread
0004b428 g     F .text	000013a0 ___svfiprintf_internal_r
0005a250 g     O .bss	00000064 reciver
0005a210 g     O .bss	00000004 alt_argv
000605fc g       *ABS*	00000000 _gp
0005413c g     F .text	0000004c alt_avalon_i2c_rx_fifo_threshold_get
00052df4 g     F .text	00000044 alt_avalon_i2c_is_busy
000573b8 g     O .rwdata	00000180 alt_fd_list
0004063c g     F .text	00000084 rs232_read_str
00041500 g     F .text	00000008 _putchar_r
00052b98 g     F .text	000000cc alt_avalon_i2c_master_config_set
000555d0 g     F .text	00000090 alt_find_dev
00049428 g     F .text	00000148 memcpy
00047a74 g     F .text	0000000c _cleanup_r
00051a88 g     F .text	000000dc .hidden __floatsidf
00055a04 g     F .text	0000007c alt_io_redirect
000507ac g     F .text	000000f4 .hidden __ltdf2
00056730 g       *ABS*	00000000 __DTOR_END__
00053788 g     F .text	000001c0 alt_avalon_i2c_master_transmit
00054fb8 g     F .text	00000074 alt_up_rs232_read_data
000415e0 g     F .text	00000014 puts
00056300 g     F .text	0000009c alt_exception_cause_generated_bad_addr
0005860a g     O .rwdata	00000003 config_8BIT_HIGH
0004af78 g     F .text	00000074 __fpclassifyd
0004a690 g     F .text	000000a4 __ratio
0005a1e0 g     O .bss	00000005 chuoi
0004dde8 g     F .text	0000001c __vfiprintf_internal
000548c8 g     F .text	0000021c altera_avalon_jtag_uart_read
00041494 g     F .text	00000030 _printf_r
00040838 g     F .text	00000064 .hidden __udivsi3
00051e7c g     F .text	000000ac isatty
0005697c g     O .rodata	000000c8 __mprec_tens
0004891c g     F .text	0000000c __locale_charset
0005a1d8 g     O .bss	00000001 cnt
00052a04 g     F .text	00000098 alt_avalon_i2c_enable
0005a204 g     O .bss	00000004 __malloc_top_pad
0005402c g     F .text	00000068 alt_avalon_i2c_int_disable
0005861c g     O .rwdata	00000004 __mb_cur_max
0004894c g     F .text	0000000c _localeconv_r
00049c28 g     F .text	0000003c __i2b
00048250 g     F .text	000004c8 __sfvwrite_r
0004afec g     F .text	00000054 _sbrk_r
0004e5c4 g     F .text	00000060 _read_r
0005863c g     O .rwdata	00000004 alt_max_fd
00054f34 g     F .text	00000044 alt_up_rs232_check_parity
0004e1a8 g     F .text	000000f0 _fclose_r
00047a3c g     F .text	00000030 fflush
0005a200 g     O .bss	00000004 __malloc_max_sbrked_mem
00053b54 g     F .text	00000210 alt_avalon_i2c_master_receive
000412f8 g     F .text	00000110 .hidden __extendsfdf2
0004f3cc g     F .text	000008ac .hidden __adddf3
00058601 g     O .rwdata	00000003 config_A1
0004a438 g     F .text	0000010c __b2d
0004ee08 g     F .text	000005c4 .hidden __umoddi3
00052050 g     F .text	000000dc lseek
00054094 g     F .text	00000064 alt_avalon_i2c_int_enable
00058614 g     O .rwdata	00000004 _global_impure_ptr
0004aa14 g     F .text	00000564 _realloc_r
0005a3b4 g       *ABS*	00000000 __bss_end
00055830 g     F .text	000000f0 alt_iic_isr_register
00056008 g     F .text	00000108 alt_tick
0004e80c g     F .text	000005fc .hidden __udivdi3
00053f54 g     F .text	00000058 alt_avalon_i2c_int_status_get
0004e410 g     F .text	00000024 _fputwc_r
00056954 g     O .rodata	00000028 __mprec_bigtens
00049a0c g     F .text	00000104 __s2b
00051b64 g     F .text	000000a8 .hidden __floatunsidf
0004a178 g     F .text	00000060 __mcmp
00047dec g     F .text	00000018 __fp_lock_all
000557e4 g     F .text	0000004c alt_ic_irq_enabled
00055f6c g     F .text	0000009c alt_alarm_stop
00052884 g     F .text	00000054 alt_avalon_i2c_register_callback
0005a218 g     O .bss	00000004 alt_irq_active
000528d8 g     F .text	000000ec alt_avalon_i2c_init
000400fc g     F .exceptions	000000d4 alt_irq_handler
00057390 g     O .rwdata	00000028 alt_dev_null
000585fe g     O .rwdata	00000003 config_A0
00055410 g     F .text	00000020 alt_dcache_flush_all
00049b10 g     F .text	00000068 __hi0bits
00051a08 g     F .text	00000080 .hidden __fixdfsi
0005865c g       *ABS*	00000000 __ram_rwdata_end
00058634 g     O .rwdata	00000008 alt_dev_list
000524a0 g     F .text	00000100 write
0004a8ac g     F .text	000000a0 _putc_r
00053214 g     F .text	0000004c alt_avalon_i2c_check_arblost
00053ff0 g     F .text	0000003c alt_avalon_i2c_int_clear
00056ae0 g       *ABS*	00000000 __ram_rodata_end
00051d88 g     F .text	000000b8 fstat
000550bc g     F .text	00000094 alt_up_rs232_write_fd
000507ac g     F .text	000000f4 .hidden __ledf2
00058648 g     O .rwdata	00000008 alt_avalon_i2c_list
00049ef0 g     F .text	00000140 __pow5mult
0004c8dc g     F .text	0000150c ___vfiprintf_internal_r
0005a1f8 g     O .bss	00000004 __nlocale_changed
0004089c g     F .text	00000058 .hidden __umodsi3
0005a3b4 g       *ABS*	00000000 end
00054404 g     F .text	000000c0 altera_avalon_jtag_uart_init
000401d0 g     F .exceptions	00000060 alt_instruction_exception_entry
000529c4 g     F .text	00000040 alt_avalon_i2c_open
00056730 g       *ABS*	00000000 __CTOR_LIST__
00072000 g       *ABS*	00000000 __alt_stack_pointer
0005339c g     F .text	000000e8 alt_avalon_i2c_master_tx
00054d80 g     F .text	0000007c alt_avalon_timer_sc_init
00041408 g     F .text	00000064 .hidden __clzsi2
00054ae4 g     F .text	00000224 altera_avalon_jtag_uart_write
00047ddc g     F .text	00000004 __sfp_lock_acquire
00049344 g     F .text	000000e4 memchr
00043a0c g     F .text	000022dc ___vfprintf_internal_r
000415f4 g     F .text	00000058 _sprintf_r
00047f40 g     F .text	00000310 _free_r
00055d04 g     F .text	0000022c alt_printf
00048928 g     F .text	00000010 __locale_mb_cur_max
00058604 g     O .rwdata	00000003 config_A2
0005657c g     F .text	00000180 __call_exitprocs
0005a1f4 g     O .bss	00000004 __mlocale_changed
00052798 g     F .text	00000050 alt_avalon_i2c_register_optional_irq_handler
00058620 g     O .rwdata	00000004 __malloc_sbrk_base
00040230 g     F .text	0000003c _start
0005a21c g     O .bss	00000004 _alt_tick_rate
00053d64 g     F .text	000001f0 alt_avalon_i2c_master_receive_using_interrupts
00054188 g     F .text	00000064 alt_avalon_i2c_rx_fifo_threshold_set
0004a030 g     F .text	00000148 __lshift
0005a220 g     O .bss	00000004 _alt_nticks
0005222c g     F .text	00000104 read
0005260c g     F .text	0000007c alt_sys_init
000411d4 g     F .text	00000124 .hidden __floatsisf
0004b258 g     F .text	000001d0 __ssprint_r
00056464 g     F .text	00000118 __register_exitproc
00054ef8 g     F .text	0000003c alt_up_rs232_get_available_space_in_write_FIFO
000535c0 g     F .text	000001c8 alt_avalon_i2c_master_tx_rx
00049c64 g     F .text	0000028c __multiply
00054770 g     F .text	00000068 altera_avalon_jtag_uart_close
0004146c g     F .text	00000028 .hidden __mulsi3
00056ae0 g       *ABS*	00000000 __ram_rwdata_start
00056730 g       *ABS*	00000000 __ram_rodata_start
0005a228 g     O .bss	00000028 __malloc_current_mallinfo
0004a544 g     F .text	0000014c __d2b
00058610 g     O .rwdata	00000004 multiplier
000542a0 g     F .text	00000060 altera_avalon_jtag_uart_read_fd
0005623c g     F .text	000000c4 alt_get_fd
000552b8 g     F .text	00000158 alt_busy_sleep
0004e078 g     F .text	00000054 _close_r
000563e8 g     F .text	0000007c memcmp
00052e38 g     F .text	000000a8 alt_avalon_i2c_rx_read_available
00054360 g     F .text	00000050 altera_avalon_jtag_uart_close_fd
0005a3b4 g       *ABS*	00000000 __alt_stack_base
000543b0 g     F .text	00000054 altera_avalon_jtag_uart_ioctl_fd
00045dc0 g     F .text	00000154 __swsetup_r
0004fc78 g     F .text	000009d0 .hidden __divdf3
00047c9c g     F .text	00000118 __sfp
0004a7a8 g     F .text	00000078 __copybits
00056f88 g     O .rwdata	00000408 __malloc_av_
00047de8 g     F .text	00000004 __sinit_lock_release
000508a0 g     F .text	0000086c .hidden __muldf3
0004b040 g     F .text	00000054 __sread
00054e58 g     F .text	00000060 alt_up_rs232_disable_read_interrupt
00056134 g     F .text	00000108 alt_find_file
0005546c g     F .text	000000a4 alt_dev_llist_insert
000521a8 g     F .text	00000024 __malloc_lock
000523b4 g     F .text	000000b0 sbrk
00041750 g     F .text	000022bc ___svfprintf_internal_r
00053260 g     F .text	0000013c alt_avalon_i2c_interrupt_transaction_status
000531c8 g     F .text	0000004c alt_avalon_i2c_check_nack
000479e0 g     F .text	0000005c _fflush_r
0004e0cc g     F .text	000000dc _calloc_r
0005a1d8 g       *ABS*	00000000 __bss_start
0005a1e6 g     O .bss	00000002 data
000496cc g     F .text	00000128 memset
000406c0 g     F .text	00000080 rs232_write_str
000585fc g     O .rwdata	00000001 ADS1115_ADDR
000402d0 g     F .text	0000036c main
00040000 g       *ABS*	00000000 __alt_mem_RAM
0004026c g     F .text	00000064 delay_ms
00053194 g     F .text	00000034 alt_avalon_i2c_master_target_set
0005a214 g     O .bss	00000004 alt_envp
0005a1fc g     O .bss	00000004 __malloc_max_total_mem
00054300 g     F .text	00000060 altera_avalon_jtag_uart_write_fd
0004e000 g     F .text	00000018 __swbuf
00053fac g     F .text	00000044 alt_avalon_i2c_int_raw_status_get
0004b174 g     F .text	00000008 __sclose
00072000 g       *ABS*	00000000 __alt_heap_limit
0004e298 g     F .text	00000014 fclose
0004613c g     F .text	00001688 _dtoa_r
00048b38 g     F .text	0000080c _malloc_r
0004e780 g     F .text	00000030 __ascii_wctomb
00058640 g     O .rwdata	00000004 alt_errno
00048718 g     F .text	000000c4 _fwalk
0004a94c g     F .text	000000c8 putc
00040740 g     F .text	00000084 .hidden __divsi3
00047e1c g     F .text	00000124 _malloc_trim_r
00056730 g       *ABS*	00000000 __CTOR_END__
00040d34 g     F .text	00000430 .hidden __mulsf3
0004b17c g     F .text	000000dc strcmp
00056730 g       *ABS*	00000000 __flash_rodata_start
00056730 g       *ABS*	00000000 __DTOR_LIST__
00055150 g     F .text	0000003c alt_up_rs232_open_dev
00050648 g     F .text	00000088 .hidden __nedf2
000525d4 g     F .text	00000038 alt_irq_init
00052330 g     F .text	00000084 alt_release_fd
0004164c g     F .text	0000006c sprintf
00056778 g     O .rodata	00000100 .hidden __clz_tab
0005a1f0 g     O .bss	00000004 _PathLocale
0005639c g     F .text	00000014 atexit
0004e018 g     F .text	00000060 _write_r
00048958 g     F .text	00000018 setlocale
00058618 g     O .rwdata	00000004 _impure_ptr
0005a20c g     O .bss	00000004 alt_argc
000477c4 g     F .text	0000021c __sflush_r
00055570 g     F .text	00000060 _do_dtors
00048944 g     F .text	00000008 __locale_cjk_lang
0005315c g     F .text	00000038 alt_avalon_i2c_master_target_get
0005a1e8 g     O .bss	00000004 rs232_dev
0005306c g     F .text	000000f0 alt_avalon_i2c_send_address
00040020 g       .exceptions	00000000 alt_irq_entry
0004a3d4 g     F .text	00000064 __ulp
00047e04 g     F .text	00000018 __fp_unlock_all
00056ae0 g     O .rwdata	0000000c led7_seg
0005862c g     O .rwdata	00000008 alt_fs_list
00054dfc g     F .text	0000005c alt_up_rs232_enable_read_interrupt
00054f78 g     F .text	00000040 alt_up_rs232_write_data
00040020 g       *ABS*	00000000 __ram_exceptions_start
00048970 g     F .text	0000000c localeconv
00054238 g     F .text	00000068 alt_avalon_i2c_tfr_cmd_fifo_threshold_set
00055680 g     F .text	00000050 alt_ic_isr_register
00052a9c g     F .text	0000004c alt_avalon_i2c_disable
0005865c g       *ABS*	00000000 _edata
0005860d g     O .rwdata	00000003 config_8BIT_LOW
0005a3b4 g       *ABS*	00000000 _end
0004e2ac g     F .text	00000164 __fputwc
00040230 g       *ABS*	00000000 __ram_exceptions_end
000547d8 g     F .text	000000f0 altera_avalon_jtag_uart_ioctl
00052ae8 g     F .text	000000b0 alt_avalon_i2c_master_config_get
00055758 g     F .text	0000008c alt_ic_irq_disable
0004b09c g     F .text	0000007c __swrite
00058624 g     O .rwdata	00000004 __malloc_trim_threshold
00048938 g     F .text	0000000c __locale_msgcharset
000563b0 g     F .text	00000038 exit
000487dc g     F .text	000000c4 _fwalk_reent
0004a1d8 g     F .text	000001fc __mdiff
000407c4 g     F .text	00000074 .hidden __modsi3
00072000 g       *ABS*	00000000 __alt_data_end
00040020 g     F .exceptions	00000000 alt_exception
00047de0 g     F .text	00000004 __sfp_lock_release
00052cf8 g     F .text	000000fc alt_avalon_i2c_master_config_speed_set
00052f88 g     F .text	000000e4 alt_avalon_i2c_cmd_write
000566fc g     F .text	00000034 _exit
0005518c g     F .text	0000012c alt_alarm_start
0004897c g     F .text	000001bc __smakebuf_r
000416b8 g     F .text	00000098 strlen
00055ba8 g     F .text	0000015c open
000506d0 g     F .text	000000dc .hidden __gedf2
00055f30 g     F .text	0000003c alt_putchar
00058628 g     O .rwdata	00000004 __wctomb
0004c8c4 g     F .text	00000018 __sprint_r
00055660 g     F .text	00000020 alt_icache_flush_all
00058650 g     O .rwdata	00000004 alt_priority_mask
000556d0 g     F .text	00000088 alt_ic_irq_enable
00045ce8 g     F .text	0000001c __vfprintf_internal
0004e7b0 g     F .text	0000005c _wctomb_r
0005110c g     F .text	000008fc .hidden __subdf3
00049b78 g     F .text	000000b0 __lo0bits
00058654 g     O .rwdata	00000008 alt_alarm_list
00055510 g     F .text	00000060 _do_ctors
0005a1ec g     O .bss	00000004 status
00054eb8 g     F .text	00000040 alt_up_rs232_get_used_space_in_read_FIFO
0004e6c0 g     F .text	000000c0 wcrtomb
00051c48 g     F .text	000000d8 close
000541ec g     F .text	0000004c alt_avalon_i2c_tfr_cmd_fifo_threshold_get
00051f90 g     F .text	00000084 alt_load
00053484 g     F .text	0000013c alt_avalon_i2c_master_rx
0004e434 g     F .text	00000080 fputwc
00047de4 g     F .text	00000004 __sinit_lock_acquire
000498c4 g     F .text	00000148 __multadd
0004989c g     F .text	00000028 _Bfree
00058607 g     O .rwdata	00000003 config_A3



Disassembly of section .entry:

00040000 <__reset>:
 * Jump to the _start entry point in the .text section if reset code
 * is allowed or if optimizing for RTL simulation.
 */
#if defined(ALT_ALLOW_CODE_AT_RESET) || defined(ALT_SIM_OPTIMIZE)
    /* Jump to the _start entry point in the .text section. */
    movhi r1, %hi(_start)
   40000:	00400134 	movhi	at,4
    ori r1, r1, %lo(_start)
   40004:	08408c14 	ori	at,at,560
    jmp r1
   40008:	0800683a 	jmp	at
	...

Disassembly of section .exceptions:

00040020 <alt_exception>:

#else /* ALT_EXCEPTION_STACK disabled */
        /* 
         * Reserve space on normal stack for registers about to be pushed.
         */
        addi  sp, sp, -76
   40020:	deffed04 	addi	sp,sp,-76
         * documentation for details).
         *
         * Leave a gap in the stack frame at 4(sp) for the muldiv handler to
         * store zero into.
         */
        stw   ra,  0(sp)
   40024:	dfc00015 	stw	ra,0(sp)
        stw   r1,   8(sp)
   40028:	d8400215 	stw	at,8(sp)
        stw   r2,  12(sp)
   4002c:	d8800315 	stw	r2,12(sp)
        stw   r3,  16(sp)
   40030:	d8c00415 	stw	r3,16(sp)
        stw   r4,  20(sp)
   40034:	d9000515 	stw	r4,20(sp)
        stw   r5,  24(sp)
   40038:	d9400615 	stw	r5,24(sp)
        stw   r6,  28(sp)
   4003c:	d9800715 	stw	r6,28(sp)
        stw   r7,  32(sp)
   40040:	d9c00815 	stw	r7,32(sp)
        rdctl r5, estatus   /* Read early to avoid usage stall */
   40044:	000b307a 	rdctl	r5,estatus
        stw   r8,  36(sp)
   40048:	da000915 	stw	r8,36(sp)
        stw   r9,  40(sp)
   4004c:	da400a15 	stw	r9,40(sp)
        stw   r10, 44(sp)
   40050:	da800b15 	stw	r10,44(sp)
        stw   r11, 48(sp)
   40054:	dac00c15 	stw	r11,48(sp)
        stw   r12, 52(sp)
   40058:	db000d15 	stw	r12,52(sp)
        stw   r13, 56(sp)
   4005c:	db400e15 	stw	r13,56(sp)
        stw   r14, 60(sp)
   40060:	db800f15 	stw	r14,60(sp)
        stw   r15, 64(sp)
   40064:	dbc01015 	stw	r15,64(sp)
        /*
         * ea-4 contains the address of the instruction being executed
         * when the exception occured. For interrupt exceptions, we will
         * will be re-issue the isntruction. Store it in 72(sp)
         */
        stw   r5,  68(sp)  /* estatus */
   40068:	d9401115 	stw	r5,68(sp)
        addi  r15, ea, -4  /* instruction that caused exception */
   4006c:	ebffff04 	addi	r15,ea,-4
        stw   r15,  72(sp)
   40070:	dbc01215 	stw	r15,72(sp)
#else
        /*
         * Test to see if the exception was a software exception or caused 
         * by an external interrupt, and vector accordingly.
         */
        rdctl r4, ipending
   40074:	0009313a 	rdctl	r4,ipending
        andi  r2, r5, 1
   40078:	2880004c 	andi	r2,r5,1
        beq   r2, zero, .Lnot_irq
   4007c:	10000326 	beq	r2,zero,4008c <alt_exception+0x6c>
        beq   r4, zero, .Lnot_irq
   40080:	20000226 	beq	r4,zero,4008c <alt_exception+0x6c>
        /*
         * Now that all necessary registers have been preserved, call 
         * alt_irq_handler() to process the interrupts.
         */

        call alt_irq_handler
   40084:	00400fc0 	call	400fc <alt_irq_handler>

        .section .exceptions.irqreturn, "xa"

        br    .Lexception_exit
   40088:	00000706 	br	400a8 <alt_exception+0x88>
         * upon completion, so we write ea (address of instruction *after*
         * the one where the exception occured) into 72(sp). The actual
         * instruction that caused the exception is written in r2, which these
         * handlers will utilize.
         */
        stw ea, 72(sp) /* EA is PC+4 so will skip over instruction causing exception */
   4008c:	df401215 	stw	ea,72(sp)
.Lunknown_16bit:
        addi.n r4, r4, 2 /* Need PC+2 to skip over instruction causing exception */
        stw r4, 72(sp)

#else /* CDX is not Enabled and all instructions are 32bits */
        ldw r2, -4(ea) /* Instruction value that caused exception */
   40090:	e8bfff17 	ldw	r2,-4(ea)
         * debugger is present) or go into an infinite loop since the
         * handling behavior is undefined; in that case we will not return here.
         */

        /* Load exception-causing address as first argument (r4) */
        addi   r4, ea, -4
   40094:	e93fff04 	addi	r4,ea,-4

        /* Call the instruction-exception entry */
        call   alt_instruction_exception_entry
   40098:	00401d00 	call	401d0 <alt_instruction_exception_entry>
         * instruction
         *
         * Return code was 0: Skip. The instruction after the exception is
         * already stored in 72(sp).
         */
        bne   r2, r0, .Lexception_exit
   4009c:	1000021e 	bne	r2,zero,400a8 <alt_exception+0x88>

        /*
         * Otherwise, modify 72(sp) to re-issue the instruction that caused the
         * exception.
         */
        addi  r15, ea, -4  /* instruction that caused exception */
   400a0:	ebffff04 	addi	r15,ea,-4
        stw   r15,  72(sp)
   400a4:	dbc01215 	stw	r15,72(sp)
        /* 
         * Restore the saved registers, so that all general purpose registers 
         * have been restored to their state at the time the interrupt occured.
         */

        ldw   r5,  68(sp)
   400a8:	d9401117 	ldw	r5,68(sp)
        ldw   ea,  72(sp)  /* This becomes the PC once eret is executed */
   400ac:	df401217 	ldw	ea,72(sp)
        ldw   ra,   0(sp)
   400b0:	dfc00017 	ldw	ra,0(sp)

        wrctl estatus, r5
   400b4:	2801707a 	wrctl	estatus,r5

        ldw   r1,   8(sp)
   400b8:	d8400217 	ldw	at,8(sp)
        ldw   r2,  12(sp)
   400bc:	d8800317 	ldw	r2,12(sp)
        ldw   r3,  16(sp)
   400c0:	d8c00417 	ldw	r3,16(sp)
        ldw   r4,  20(sp)
   400c4:	d9000517 	ldw	r4,20(sp)
        ldw   r5,  24(sp)
   400c8:	d9400617 	ldw	r5,24(sp)
        ldw   r6,  28(sp)
   400cc:	d9800717 	ldw	r6,28(sp)
        ldw   r7,  32(sp)
   400d0:	d9c00817 	ldw	r7,32(sp)

#if defined(ALT_EXCEPTION_STACK) && defined(ALT_STACK_CHECK)
        ldw   et, %gprel(alt_exception_old_stack_limit)(gp)
#endif

        ldw   r8,  36(sp)
   400d4:	da000917 	ldw	r8,36(sp)
        ldw   r9,  40(sp)
   400d8:	da400a17 	ldw	r9,40(sp)
        ldw   r10, 44(sp)
   400dc:	da800b17 	ldw	r10,44(sp)
        ldw   r11, 48(sp)
   400e0:	dac00c17 	ldw	r11,48(sp)
        ldw   r12, 52(sp)
   400e4:	db000d17 	ldw	r12,52(sp)
        ldw   r13, 56(sp)
   400e8:	db400e17 	ldw	r13,56(sp)
        ldw   r14, 60(sp)
   400ec:	db800f17 	ldw	r14,60(sp)
        ldw   r15, 64(sp)
   400f0:	dbc01017 	ldw	r15,64(sp)
        stw   et, %gprel(alt_stack_limit_value)(gp)
        stw   zero, %gprel(alt_exception_old_stack_limit)(gp)
#endif /* ALT_STACK_CHECK */
        ldw   sp,  76(sp)
#else /* ALT_EXCEPTION_STACK disabled */
        addi  sp, sp, 76
   400f4:	dec01304 	addi	sp,sp,76

        /*
         * Return to the interrupted instruction.
         */

        eret
   400f8:	ef80083a 	eret

000400fc <alt_irq_handler>:
 * instruction is present if the macro ALT_CI_INTERRUPT_VECTOR defined.
 */

void alt_irq_handler (void) __attribute__ ((section (".exceptions")));
void alt_irq_handler (void)
{
   400fc:	defff904 	addi	sp,sp,-28
   40100:	dfc00615 	stw	ra,24(sp)
   40104:	df000515 	stw	fp,20(sp)
   40108:	df000504 	addi	fp,sp,20
  
  /*
   * Notify the operating system that we are at interrupt level.
   */ 
  
  ALT_OS_INT_ENTER();
   4010c:	0001883a 	nop
#ifndef NIOS2_EIC_PRESENT
static ALT_INLINE alt_u32 ALT_ALWAYS_INLINE alt_irq_pending (void)
{
  alt_u32 active;

  NIOS2_READ_IPENDING (active);
   40110:	0005313a 	rdctl	r2,ipending
   40114:	e0bffe15 	stw	r2,-8(fp)

  return active;
   40118:	e0bffe17 	ldw	r2,-8(fp)
   * Consider the case where the high priority interupt is asserted during
   * the interrupt entry sequence for a lower priority interrupt to see why
   * this is the case.
   */

  active = alt_irq_pending ();
   4011c:	e0bffb15 	stw	r2,-20(fp)

  do
  {
    i = 0;
   40120:	e03ffd15 	stw	zero,-12(fp)
    mask = 1;
   40124:	00800044 	movi	r2,1
   40128:	e0bffc15 	stw	r2,-16(fp)
     * called to clear the interrupt condition.
     */

    do
    {
      if (active & mask)
   4012c:	e0fffb17 	ldw	r3,-20(fp)
   40130:	e0bffc17 	ldw	r2,-16(fp)
   40134:	1884703a 	and	r2,r3,r2
   40138:	10001426 	beq	r2,zero,4018c <alt_irq_handler+0x90>
      { 
#ifdef ALT_ENHANCED_INTERRUPT_API_PRESENT
        alt_irq[i].handler(alt_irq[i].context); 
   4013c:	008001b4 	movhi	r2,6
   40140:	10a8ad04 	addi	r2,r2,-23884
   40144:	e0fffd17 	ldw	r3,-12(fp)
   40148:	180690fa 	slli	r3,r3,3
   4014c:	10c5883a 	add	r2,r2,r3
   40150:	10c00017 	ldw	r3,0(r2)
   40154:	008001b4 	movhi	r2,6
   40158:	10a8ad04 	addi	r2,r2,-23884
   4015c:	e13ffd17 	ldw	r4,-12(fp)
   40160:	200890fa 	slli	r4,r4,3
   40164:	1105883a 	add	r2,r2,r4
   40168:	10800104 	addi	r2,r2,4
   4016c:	10800017 	ldw	r2,0(r2)
   40170:	1009883a 	mov	r4,r2
   40174:	183ee83a 	callr	r3
#else
        alt_irq[i].handler(alt_irq[i].context, i); 
#endif
        break;
   40178:	0001883a 	nop
#ifndef NIOS2_EIC_PRESENT
static ALT_INLINE alt_u32 ALT_ALWAYS_INLINE alt_irq_pending (void)
{
  alt_u32 active;

  NIOS2_READ_IPENDING (active);
   4017c:	0005313a 	rdctl	r2,ipending
   40180:	e0bfff15 	stw	r2,-4(fp)

  return active;
   40184:	e0bfff17 	ldw	r2,-4(fp)
   40188:	00000706 	br	401a8 <alt_irq_handler+0xac>
      }
      mask <<= 1;
   4018c:	e0bffc17 	ldw	r2,-16(fp)
   40190:	1085883a 	add	r2,r2,r2
   40194:	e0bffc15 	stw	r2,-16(fp)
      i++;
   40198:	e0bffd17 	ldw	r2,-12(fp)
   4019c:	10800044 	addi	r2,r2,1
   401a0:	e0bffd15 	stw	r2,-12(fp)

    } while (1);
   401a4:	003fe106 	br	4012c <__alt_data_end+0xfffce12c>

    active = alt_irq_pending ();
   401a8:	e0bffb15 	stw	r2,-20(fp)
    
  } while (active);
   401ac:	e0bffb17 	ldw	r2,-20(fp)
   401b0:	103fdb1e 	bne	r2,zero,40120 <__alt_data_end+0xfffce120>

  /*
   * Notify the operating system that interrupt processing is complete.
   */ 

  ALT_OS_INT_EXIT();
   401b4:	0001883a 	nop
}
   401b8:	0001883a 	nop
   401bc:	e037883a 	mov	sp,fp
   401c0:	dfc00117 	ldw	ra,4(sp)
   401c4:	df000017 	ldw	fp,0(sp)
   401c8:	dec00204 	addi	sp,sp,8
   401cc:	f800283a 	ret

000401d0 <alt_instruction_exception_entry>:
 * that handler if it has been registered. Absent a handler, it will
 * break break or hang as discussed below.
 */
int 
alt_instruction_exception_entry (alt_u32 exception_pc)
{
   401d0:	defffb04 	addi	sp,sp,-20
   401d4:	dfc00415 	stw	ra,16(sp)
   401d8:	df000315 	stw	fp,12(sp)
   401dc:	df000304 	addi	fp,sp,12
   401e0:	e13fff15 	stw	r4,-4(fp)
  cause = ( (cause & NIOS2_EXCEPTION_REG_CAUSE_MASK) >>
              NIOS2_EXCEPTION_REG_CAUSE_OFST );

  NIOS2_READ_BADADDR(badaddr);
#else
  cause = NIOS2_EXCEPTION_CAUSE_NOT_PRESENT;
   401e4:	00bfffc4 	movi	r2,-1
   401e8:	e0bffd15 	stw	r2,-12(fp)
  badaddr = 0;
   401ec:	e03ffe15 	stw	zero,-8(fp)
#endif /* NIOS2_HAS_EXTRA_EXCEPTION_INFO */

  if(alt_instruction_exception_handler) {
   401f0:	d0a70a17 	ldw	r2,-25560(gp)
   401f4:	10000726 	beq	r2,zero,40214 <alt_instruction_exception_entry+0x44>
     * Call handler. Its return value indicates whether the exception-causing
     * instruction should be re-issued. The code that called us,
     * alt_eceptions_entry.S, will look at this value and adjust the ea
     * register as necessary
     */
    return alt_instruction_exception_handler(cause, exception_pc, badaddr);
   401f8:	d0a70a17 	ldw	r2,-25560(gp)
   401fc:	e0fffd17 	ldw	r3,-12(fp)
   40200:	e1bffe17 	ldw	r6,-8(fp)
   40204:	e17fff17 	ldw	r5,-4(fp)
   40208:	1809883a 	mov	r4,r3
   4020c:	103ee83a 	callr	r2
   40210:	00000206 	br	4021c <alt_instruction_exception_entry+0x4c>
   *    (a peripheral which negates its interrupt output before its
   *    interrupt handler has been executed will cause spurious interrupts)
   */
  else {
#ifdef NIOS2_HAS_DEBUG_STUB
    NIOS2_BREAK();
   40214:	003da03a 	break	0
      ;
#endif /* NIOS2_HAS_DEBUG_STUB */
  }

  /* We should not get here. Remove compiler warning. */
  return NIOS2_EXCEPTION_RETURN_REISSUE_INST;
   40218:	0005883a 	mov	r2,zero
}
   4021c:	e037883a 	mov	sp,fp
   40220:	dfc00117 	ldw	ra,4(sp)
   40224:	df000017 	ldw	fp,0(sp)
   40228:	dec00204 	addi	sp,sp,8
   4022c:	f800283a 	ret

Disassembly of section .text:

00040230 <_start>:

    /*
     * Now that the caches are initialized, set up the stack pointer and global pointer.
     * The values provided by the linker are assumed to be correctly aligned.
     */
    movhi sp, %hi(__alt_stack_pointer)
   40230:	06c001f4 	movhi	sp,7
    ori sp, sp, %lo(__alt_stack_pointer)
   40234:	dec80014 	ori	sp,sp,8192
    movhi gp, %hi(_gp)
   40238:	068001b4 	movhi	gp,6
    ori gp, gp, %lo(_gp)
   4023c:	d6817f14 	ori	gp,gp,1532
 */
#ifndef ALT_SIM_OPTIMIZE
    /* Log that the BSS is about to be cleared. */
    ALT_LOG_PUTS(alt_log_msg_bss)

    movhi r2, %hi(__bss_start)
   40240:	00800174 	movhi	r2,5
    ori r2, r2, %lo(__bss_start)
   40244:	10a87614 	ori	r2,r2,41432

    movhi r3, %hi(__bss_end)
   40248:	00c00174 	movhi	r3,5
    ori r3, r3, %lo(__bss_end)
   4024c:	18e8ed14 	ori	r3,r3,41908

    beq r2, r3, 1f
   40250:	10c00326 	beq	r2,r3,40260 <_start+0x30>

0:
    stw zero, (r2)
   40254:	10000015 	stw	zero,0(r2)
    addi r2, r2, 4
   40258:	10800104 	addi	r2,r2,4
    bltu r2, r3, 0b
   4025c:	10fffd36 	bltu	r2,r3,40254 <__alt_data_end+0xfffce254>
     * section aren't defined until alt_load() has been called).
     */
    mov   et, zero
#endif

    call alt_load
   40260:	0051f900 	call	51f90 <alt_load>

    /* Log that alt_main is about to be called. */
    ALT_LOG_PUTS(alt_log_msg_alt_main)

    /* Call the C entry point. It should never return. */
    call alt_main
   40264:	005212c0 	call	5212c <alt_main>

00040268 <alt_after_alt_main>:

    /* Wait in infinite loop in case alt_main does return. */
alt_after_alt_main:
    br alt_after_alt_main
   40268:	003fff06 	br	40268 <__alt_data_end+0xfffce268>

0004026c <delay_ms>:
					 0b0010000,
					 0b0011100,
					 0b1000110
};
void delay_ms(int ms)
{
   4026c:	defffc04 	addi	sp,sp,-16
   40270:	df000315 	stw	fp,12(sp)
   40274:	df000304 	addi	fp,sp,12
   40278:	e13fff15 	stw	r4,-4(fp)
	unsigned int x,y;
	for(x =0; x<ms; x++)
   4027c:	e03ffd15 	stw	zero,-12(fp)
   40280:	00000b06 	br	402b0 <delay_ms+0x44>
	{	for(y =0; y<1000; y++);}
   40284:	e03ffe15 	stw	zero,-8(fp)
   40288:	00000306 	br	40298 <delay_ms+0x2c>
   4028c:	e0bffe17 	ldw	r2,-8(fp)
   40290:	10800044 	addi	r2,r2,1
   40294:	e0bffe15 	stw	r2,-8(fp)
   40298:	e0bffe17 	ldw	r2,-8(fp)
   4029c:	1080fa30 	cmpltui	r2,r2,1000
   402a0:	103ffa1e 	bne	r2,zero,4028c <__alt_data_end+0xfffce28c>
					 0b1000110
};
void delay_ms(int ms)
{
	unsigned int x,y;
	for(x =0; x<ms; x++)
   402a4:	e0bffd17 	ldw	r2,-12(fp)
   402a8:	10800044 	addi	r2,r2,1
   402ac:	e0bffd15 	stw	r2,-12(fp)
   402b0:	e0bfff17 	ldw	r2,-4(fp)
   402b4:	e0fffd17 	ldw	r3,-12(fp)
   402b8:	18bff236 	bltu	r3,r2,40284 <__alt_data_end+0xfffce284>
	{	for(y =0; y<1000; y++);}
}
   402bc:	0001883a 	nop
   402c0:	e037883a 	mov	sp,fp
   402c4:	df000017 	ldw	fp,0(sp)
   402c8:	dec00104 	addi	sp,sp,4
   402cc:	f800283a 	ret

000402d0 <main>:
alt_up_rs232_dev* rs232_dev;




int main(){
   402d0:	defff304 	addi	sp,sp,-52
   402d4:	dfc00c15 	stw	ra,48(sp)
   402d8:	df000b15 	stw	fp,44(sp)
   402dc:	df000b04 	addi	fp,sp,44

 alt_u8 ReadDatabuf[2];
 alt_u8 TxBuffer[1]= { RegisterAddr };
   402e0:	0005883a 	mov	r2,zero
   402e4:	e0bffa85 	stb	r2,-22(fp)

 ALT_AVALON_I2C_STATUS_CODE status;
 ALT_AVALON_I2C_DEV_t *my_i2c;
 ALT_AVALON_I2C_MASTER_CONFIG_t cfg;

 cfg.addr_mode = 0;
   402e8:	e03ffc15 	stw	zero,-16(fp)

 my_i2c = alt_avalon_i2c_open(I2C_NAME);
   402ec:	01000174 	movhi	r4,5
   402f0:	2119cc04 	addi	r4,r4,26416
   402f4:	00529c40 	call	529c4 <alt_avalon_i2c_open>
   402f8:	e0bff715 	stw	r2,-36(fp)
 rs232_dev = alt_up_rs232_open_dev("/dev/RS232");
   402fc:	01000174 	movhi	r4,5
   40300:	2119cf04 	addi	r4,r4,26428
   40304:	00551500 	call	55150 <alt_up_rs232_open_dev>
   40308:	d0a6fb15 	stw	r2,-25620(gp)
 if(my_i2c == NULL){
   4030c:	e0bff717 	ldw	r2,-36(fp)
   40310:	1000051e 	bne	r2,zero,40328 <main+0x58>
 printf("Failed to open I2C port\n");
   40314:	01000174 	movhi	r4,5
   40318:	2119d204 	addi	r4,r4,26440
   4031c:	00415e00 	call	415e0 <puts>
 return 1;
   40320:	00800044 	movi	r2,1
   40324:	0000c006 	br	40628 <main+0x358>
 }
 alt_avalon_i2c_master_target_set(my_i2c, ADS1115_ADDR); 		//pointing to the TMP102 address
   40328:	00801204 	movi	r2,72
   4032c:	10803fcc 	andi	r2,r2,255
   40330:	100b883a 	mov	r5,r2
   40334:	e13ff717 	ldw	r4,-36(fp)
   40338:	00531940 	call	53194 <alt_avalon_i2c_master_target_set>
 alt_avalon_i2c_master_config_speed_set(my_i2c, &cfg,100000 ); //Set the speed
   4033c:	e0bffc04 	addi	r2,fp,-16
   40340:	018000b4 	movhi	r6,2
   40344:	31a1a804 	addi	r6,r6,-31072
   40348:	100b883a 	mov	r5,r2
   4034c:	e13ff717 	ldw	r4,-36(fp)
   40350:	0052cf80 	call	52cf8 <alt_avalon_i2c_master_config_speed_set>
 alt_avalon_i2c_master_config_set(my_i2c, &cfg);				//configure
   40354:	e0bffc04 	addi	r2,fp,-16
   40358:	100b883a 	mov	r5,r2
   4035c:	e13ff717 	ldw	r4,-36(fp)
   40360:	0052b980 	call	52b98 <alt_avalon_i2c_master_config_set>
 alt_avalon_i2c_init(my_i2c);
   40364:	e13ff717 	ldw	r4,-36(fp)
   40368:	00528d80 	call	528d8 <alt_avalon_i2c_init>
 while(1)
 {

	 // doc kenh A0.

	 status = alt_avalon_i2c_master_tx(my_i2c,config_A0,sizeof(config_A0),ALT_AVALON_I2C_NO_INTERRUPTS);
   4036c:	000f883a 	mov	r7,zero
   40370:	018000c4 	movi	r6,3
   40374:	d1600084 	addi	r5,gp,-32766
   40378:	e13ff717 	ldw	r4,-36(fp)
   4037c:	005339c0 	call	5339c <alt_avalon_i2c_master_tx>
   40380:	e0bff815 	stw	r2,-32(fp)
	 status = alt_avalon_i2c_master_tx(my_i2c,config_8BIT_HIGH,sizeof(config_8BIT_HIGH),ALT_AVALON_I2C_NO_INTERRUPTS);
   40384:	000f883a 	mov	r7,zero
   40388:	018000c4 	movi	r6,3
   4038c:	d1600384 	addi	r5,gp,-32754
   40390:	e13ff717 	ldw	r4,-36(fp)
   40394:	005339c0 	call	5339c <alt_avalon_i2c_master_tx>
   40398:	e0bff815 	stw	r2,-32(fp)
	 status = alt_avalon_i2c_master_tx(my_i2c,config_8BIT_LOW, sizeof(config_8BIT_LOW), ALT_AVALON_I2C_NO_INTERRUPTS);
   4039c:	000f883a 	mov	r7,zero
   403a0:	018000c4 	movi	r6,3
   403a4:	d1600444 	addi	r5,gp,-32751
   403a8:	e13ff717 	ldw	r4,-36(fp)
   403ac:	005339c0 	call	5339c <alt_avalon_i2c_master_tx>
   403b0:	e0bff815 	stw	r2,-32(fp)
	 status = alt_avalon_i2c_master_tx_rx(my_i2c, TxBuffer, 1, ReadDatabuf, sizeof(ReadDatabuf),ALT_AVALON_I2C_NO_INTERRUPTS);
   403b4:	e13ffa04 	addi	r4,fp,-24
   403b8:	e0fffa84 	addi	r3,fp,-22
   403bc:	d8000115 	stw	zero,4(sp)
   403c0:	00800084 	movi	r2,2
   403c4:	d8800015 	stw	r2,0(sp)
   403c8:	200f883a 	mov	r7,r4
   403cc:	01800044 	movi	r6,1
   403d0:	180b883a 	mov	r5,r3
   403d4:	e13ff717 	ldw	r4,-36(fp)
   403d8:	00535c00 	call	535c0 <alt_avalon_i2c_master_tx_rx>
   403dc:	e0bff815 	stw	r2,-32(fp)

	 if (status!=ALT_AVALON_I2C_SUCCESS){
   403e0:	e0bff817 	ldw	r2,-32(fp)
   403e4:	10000526 	beq	r2,zero,403fc <main+0x12c>
	 printf("Read Failure\n");
   403e8:	01000174 	movhi	r4,5
   403ec:	2119d804 	addi	r4,r4,26464
   403f0:	00415e00 	call	415e0 <puts>
	 return 1; //FAIL
   403f4:	00800044 	movi	r2,1
   403f8:	00008b06 	br	40628 <main+0x358>
	 }

	 data = ( ReadDatabuf[0] << 8) | ReadDatabuf[1];
   403fc:	e0bffa03 	ldbu	r2,-24(fp)
   40400:	10803fcc 	andi	r2,r2,255
   40404:	1004923a 	slli	r2,r2,8
   40408:	1007883a 	mov	r3,r2
   4040c:	e0bffa43 	ldbu	r2,-23(fp)
   40410:	10803fcc 	andi	r2,r2,255
   40414:	1884b03a 	or	r2,r3,r2
   40418:	d0a6fa8d 	sth	r2,-25622(gp)
	 ADC_A0 = data * multiplier;
   4041c:	d0a6fa8b 	ldhu	r2,-25622(gp)
   40420:	10bfffcc 	andi	r2,r2,65535
   40424:	1009883a 	mov	r4,r2
   40428:	00411d40 	call	411d4 <__floatsisf>
   4042c:	1007883a 	mov	r3,r2
   40430:	008f9034 	movhi	r2,15936
   40434:	100b883a 	mov	r5,r2
   40438:	1809883a 	mov	r4,r3
   4043c:	0040d340 	call	40d34 <__mulsf3>
   40440:	1007883a 	mov	r3,r2
   40444:	1805883a 	mov	r2,r3
   40448:	d0a6f815 	stw	r2,-25632(gp)

	 int ADC_CV = ADC_A0;
   4044c:	d0a6f817 	ldw	r2,-25632(gp)
   40450:	1009883a 	mov	r4,r2
   40454:	00411640 	call	41164 <__fixsfsi>
   40458:	e0bff915 	stw	r2,-28(fp)
	 IOWR_ALTERA_AVALON_PIO_DATA(LED1_BASE,led7_seg[ADC_CV/1000]);  //hang chuc - hour
   4045c:	e0bff917 	ldw	r2,-28(fp)
   40460:	0140fa04 	movi	r5,1000
   40464:	1009883a 	mov	r4,r2
   40468:	00407400 	call	40740 <__divsi3>
   4046c:	1007883a 	mov	r3,r2
   40470:	00800174 	movhi	r2,5
   40474:	109ab804 	addi	r2,r2,27360
   40478:	10c5883a 	add	r2,r2,r3
   4047c:	10800003 	ldbu	r2,0(r2)
   40480:	10c03fcc 	andi	r3,r2,255
   40484:	18c0201c 	xori	r3,r3,128
   40488:	18ffe004 	addi	r3,r3,-128
   4048c:	00800234 	movhi	r2,8
   40490:	10843804 	addi	r2,r2,4320
   40494:	10c00035 	stwio	r3,0(r2)
	 IOWR_ALTERA_AVALON_PIO_DATA(LED2_BASE,led7_seg[ADC_CV/100%10]); 	//hang don vi - hour
   40498:	e0bff917 	ldw	r2,-28(fp)
   4049c:	01401904 	movi	r5,100
   404a0:	1009883a 	mov	r4,r2
   404a4:	00407400 	call	40740 <__divsi3>
   404a8:	01400284 	movi	r5,10
   404ac:	1009883a 	mov	r4,r2
   404b0:	00407c40 	call	407c4 <__modsi3>
   404b4:	1007883a 	mov	r3,r2
   404b8:	00800174 	movhi	r2,5
   404bc:	109ab804 	addi	r2,r2,27360
   404c0:	10c5883a 	add	r2,r2,r3
   404c4:	10800003 	ldbu	r2,0(r2)
   404c8:	10c03fcc 	andi	r3,r2,255
   404cc:	18c0201c 	xori	r3,r3,128
   404d0:	18ffe004 	addi	r3,r3,-128
   404d4:	00800234 	movhi	r2,8
   404d8:	10843c04 	addi	r2,r2,4336
   404dc:	10c00035 	stwio	r3,0(r2)

	 IOWR_ALTERA_AVALON_PIO_DATA(LED3_BASE,led7_seg[ADC_CV/10%10]);  //hang chuc - minute
   404e0:	e0bff917 	ldw	r2,-28(fp)
   404e4:	01400284 	movi	r5,10
   404e8:	1009883a 	mov	r4,r2
   404ec:	00407400 	call	40740 <__divsi3>
   404f0:	01400284 	movi	r5,10
   404f4:	1009883a 	mov	r4,r2
   404f8:	00407c40 	call	407c4 <__modsi3>
   404fc:	1007883a 	mov	r3,r2
   40500:	00800174 	movhi	r2,5
   40504:	109ab804 	addi	r2,r2,27360
   40508:	10c5883a 	add	r2,r2,r3
   4050c:	10800003 	ldbu	r2,0(r2)
   40510:	10c03fcc 	andi	r3,r2,255
   40514:	18c0201c 	xori	r3,r3,128
   40518:	18ffe004 	addi	r3,r3,-128
   4051c:	00800234 	movhi	r2,8
   40520:	10843404 	addi	r2,r2,4304
   40524:	10c00035 	stwio	r3,0(r2)
	 IOWR_ALTERA_AVALON_PIO_DATA(LED4_BASE,led7_seg[ADC_CV%10]); 	//hang don vi - minute
   40528:	e0bff917 	ldw	r2,-28(fp)
   4052c:	01400284 	movi	r5,10
   40530:	1009883a 	mov	r4,r2
   40534:	00407c40 	call	407c4 <__modsi3>
   40538:	1007883a 	mov	r3,r2
   4053c:	00800174 	movhi	r2,5
   40540:	109ab804 	addi	r2,r2,27360
   40544:	10c5883a 	add	r2,r2,r3
   40548:	10800003 	ldbu	r2,0(r2)
   4054c:	10c03fcc 	andi	r3,r2,255
   40550:	18c0201c 	xori	r3,r3,128
   40554:	18ffe004 	addi	r3,r3,-128
   40558:	00800234 	movhi	r2,8
   4055c:	10843004 	addi	r2,r2,4288
   40560:	10c00035 	stwio	r3,0(r2)

	 IOWR_ALTERA_AVALON_PIO_DATA(LED5_BASE,led7_seg[10]);  //hang chuc - second
   40564:	00800174 	movhi	r2,5
   40568:	109ab804 	addi	r2,r2,27360
   4056c:	10800283 	ldbu	r2,10(r2)
   40570:	10c03fcc 	andi	r3,r2,255
   40574:	18c0201c 	xori	r3,r3,128
   40578:	18ffe004 	addi	r3,r3,-128
   4057c:	00800234 	movhi	r2,8
   40580:	10842c04 	addi	r2,r2,4272
   40584:	10c00035 	stwio	r3,0(r2)
	 IOWR_ALTERA_AVALON_PIO_DATA(LED6_BASE,led7_seg[11]); 	//hang don vi - second
   40588:	00800174 	movhi	r2,5
   4058c:	109ab804 	addi	r2,r2,27360
   40590:	108002c3 	ldbu	r2,11(r2)
   40594:	10c03fcc 	andi	r3,r2,255
   40598:	18c0201c 	xori	r3,r3,128
   4059c:	18ffe004 	addi	r3,r3,-128
   405a0:	00800234 	movhi	r2,8
   405a4:	10842804 	addi	r2,r2,4256
   405a8:	10c00035 	stwio	r3,0(r2)

	 sprintf(finaloutput, "%.1f*C\n", (ADC_A0/10));
   405ac:	d0a6f817 	ldw	r2,-25632(gp)
   405b0:	01504834 	movhi	r5,16672
   405b4:	1009883a 	mov	r4,r2
   405b8:	00408f40 	call	408f4 <__divsf3>
   405bc:	1007883a 	mov	r3,r2
   405c0:	1805883a 	mov	r2,r3
   405c4:	1009883a 	mov	r4,r2
   405c8:	00412f80 	call	412f8 <__extendsfdf2>
   405cc:	1009883a 	mov	r4,r2
   405d0:	180b883a 	mov	r5,r3
   405d4:	e0bffac4 	addi	r2,fp,-21
   405d8:	200d883a 	mov	r6,r4
   405dc:	280f883a 	mov	r7,r5
   405e0:	01400174 	movhi	r5,5
   405e4:	2959dc04 	addi	r5,r5,26480
   405e8:	1009883a 	mov	r4,r2
   405ec:	004164c0 	call	4164c <sprintf>
	 rs232_write_str(rs232_dev, finaloutput, 8);
   405f0:	d0a6fb17 	ldw	r2,-25620(gp)
   405f4:	e0fffac4 	addi	r3,fp,-21
   405f8:	01800204 	movi	r6,8
   405fc:	180b883a 	mov	r5,r3
   40600:	1009883a 	mov	r4,r2
   40604:	00406c00 	call	406c0 <rs232_write_str>

	 printf(finaloutput);
   40608:	e0bffac4 	addi	r2,fp,-21
   4060c:	1009883a 	mov	r4,r2
   40610:	00414c40 	call	414c4 <printf>
	 printf("\n");
   40614:	01000284 	movi	r4,10
   40618:	00415080 	call	41508 <putchar>
	 delay_ms(500);
   4061c:	01007d04 	movi	r4,500
   40620:	004026c0 	call	4026c <delay_ms>
 }
   40624:	003f5106 	br	4036c <__alt_data_end+0xfffce36c>
 return 0;
 }
   40628:	e037883a 	mov	sp,fp
   4062c:	dfc00117 	ldw	ra,4(sp)
   40630:	df000017 	ldw	fp,0(sp)
   40634:	dec00204 	addi	sp,sp,8
   40638:	f800283a 	ret

0004063c <rs232_read_str>:

int rs232_read_str (alt_fd* fd, char* ptr, int len)
{
   4063c:	defff904 	addi	sp,sp,-28
   40640:	dfc00615 	stw	ra,24(sp)
   40644:	df000515 	stw	fp,20(sp)
   40648:	df000504 	addi	fp,sp,20
   4064c:	e13ffd15 	stw	r4,-12(fp)
   40650:	e17ffe15 	stw	r5,-8(fp)
   40654:	e1bfff15 	stw	r6,-4(fp)
	int count = 0;
   40658:	e03ffb15 	stw	zero,-20(fp)
	alt_u8 parity_error;
	while(len--)
   4065c:	00000c06 	br	40690 <rs232_read_str+0x54>
	{
		if (alt_up_rs232_read_data(fd, (alt_u8 *)ptr++, &parity_error)==0)
   40660:	e0bffe17 	ldw	r2,-8(fp)
   40664:	10c00044 	addi	r3,r2,1
   40668:	e0fffe15 	stw	r3,-8(fp)
   4066c:	e0fffc04 	addi	r3,fp,-16
   40670:	180d883a 	mov	r6,r3
   40674:	100b883a 	mov	r5,r2
   40678:	e13ffd17 	ldw	r4,-12(fp)
   4067c:	0054fb80 	call	54fb8 <alt_up_rs232_read_data>
   40680:	1000081e 	bne	r2,zero,406a4 <rs232_read_str+0x68>
			{
				count++;
   40684:	e0bffb17 	ldw	r2,-20(fp)
   40688:	10800044 	addi	r2,r2,1
   4068c:	e0bffb15 	stw	r2,-20(fp)

int rs232_read_str (alt_fd* fd, char* ptr, int len)
{
	int count = 0;
	alt_u8 parity_error;
	while(len--)
   40690:	e0bfff17 	ldw	r2,-4(fp)
   40694:	10ffffc4 	addi	r3,r2,-1
   40698:	e0ffff15 	stw	r3,-4(fp)
   4069c:	103ff01e 	bne	r2,zero,40660 <__alt_data_end+0xfffce660>
   406a0:	00000106 	br	406a8 <rs232_read_str+0x6c>
			{
				count++;
//				len--;
			}
		else
			break;
   406a4:	0001883a 	nop
	}
	return count;
   406a8:	e0bffb17 	ldw	r2,-20(fp)
}
   406ac:	e037883a 	mov	sp,fp
   406b0:	dfc00117 	ldw	ra,4(sp)
   406b4:	df000017 	ldw	fp,0(sp)
   406b8:	dec00204 	addi	sp,sp,8
   406bc:	f800283a 	ret

000406c0 <rs232_write_str>:



void rs232_write_str(alt_fd* fd, char *ptr, int len)
{
   406c0:	defffa04 	addi	sp,sp,-24
   406c4:	dfc00515 	stw	ra,20(sp)
   406c8:	df000415 	stw	fp,16(sp)
   406cc:	df000404 	addi	fp,sp,16
   406d0:	e13ffd15 	stw	r4,-12(fp)
   406d4:	e17ffe15 	stw	r5,-8(fp)
   406d8:	e1bfff15 	stw	r6,-4(fp)
	int count = 0;
   406dc:	e03ffc15 	stw	zero,-16(fp)
	while(len--)
   406e0:	00000d06 	br	40718 <rs232_write_str+0x58>
	{
		if (alt_up_rs232_write_data(fd, *ptr)==0)
   406e4:	e0bffe17 	ldw	r2,-8(fp)
   406e8:	10800003 	ldbu	r2,0(r2)
   406ec:	10803fcc 	andi	r2,r2,255
   406f0:	100b883a 	mov	r5,r2
   406f4:	e13ffd17 	ldw	r4,-12(fp)
   406f8:	0054f780 	call	54f78 <alt_up_rs232_write_data>
   406fc:	1000061e 	bne	r2,zero,40718 <rs232_write_str+0x58>
				{
					count++;
   40700:	e0bffc17 	ldw	r2,-16(fp)
   40704:	10800044 	addi	r2,r2,1
   40708:	e0bffc15 	stw	r2,-16(fp)
					ptr++;
   4070c:	e0bffe17 	ldw	r2,-8(fp)
   40710:	10800044 	addi	r2,r2,1
   40714:	e0bffe15 	stw	r2,-8(fp)


void rs232_write_str(alt_fd* fd, char *ptr, int len)
{
	int count = 0;
	while(len--)
   40718:	e0bfff17 	ldw	r2,-4(fp)
   4071c:	10ffffc4 	addi	r3,r2,-1
   40720:	e0ffff15 	stw	r3,-4(fp)
   40724:	103fef1e 	bne	r2,zero,406e4 <__alt_data_end+0xfffce6e4>
				{
					count++;
					ptr++;
				}
	}
}
   40728:	0001883a 	nop
   4072c:	e037883a 	mov	sp,fp
   40730:	dfc00117 	ldw	ra,4(sp)
   40734:	df000017 	ldw	fp,0(sp)
   40738:	dec00204 	addi	sp,sp,8
   4073c:	f800283a 	ret

00040740 <__divsi3>:
   40740:	20001b16 	blt	r4,zero,407b0 <__divsi3+0x70>
   40744:	000f883a 	mov	r7,zero
   40748:	28001616 	blt	r5,zero,407a4 <__divsi3+0x64>
   4074c:	200d883a 	mov	r6,r4
   40750:	29001a2e 	bgeu	r5,r4,407bc <__divsi3+0x7c>
   40754:	00800804 	movi	r2,32
   40758:	00c00044 	movi	r3,1
   4075c:	00000106 	br	40764 <__divsi3+0x24>
   40760:	10000d26 	beq	r2,zero,40798 <__divsi3+0x58>
   40764:	294b883a 	add	r5,r5,r5
   40768:	10bfffc4 	addi	r2,r2,-1
   4076c:	18c7883a 	add	r3,r3,r3
   40770:	293ffb36 	bltu	r5,r4,40760 <__alt_data_end+0xfffce760>
   40774:	0005883a 	mov	r2,zero
   40778:	18000726 	beq	r3,zero,40798 <__divsi3+0x58>
   4077c:	0005883a 	mov	r2,zero
   40780:	31400236 	bltu	r6,r5,4078c <__divsi3+0x4c>
   40784:	314dc83a 	sub	r6,r6,r5
   40788:	10c4b03a 	or	r2,r2,r3
   4078c:	1806d07a 	srli	r3,r3,1
   40790:	280ad07a 	srli	r5,r5,1
   40794:	183ffa1e 	bne	r3,zero,40780 <__alt_data_end+0xfffce780>
   40798:	38000126 	beq	r7,zero,407a0 <__divsi3+0x60>
   4079c:	0085c83a 	sub	r2,zero,r2
   407a0:	f800283a 	ret
   407a4:	014bc83a 	sub	r5,zero,r5
   407a8:	39c0005c 	xori	r7,r7,1
   407ac:	003fe706 	br	4074c <__alt_data_end+0xfffce74c>
   407b0:	0109c83a 	sub	r4,zero,r4
   407b4:	01c00044 	movi	r7,1
   407b8:	003fe306 	br	40748 <__alt_data_end+0xfffce748>
   407bc:	00c00044 	movi	r3,1
   407c0:	003fee06 	br	4077c <__alt_data_end+0xfffce77c>

000407c4 <__modsi3>:
   407c4:	20001716 	blt	r4,zero,40824 <__modsi3+0x60>
   407c8:	000f883a 	mov	r7,zero
   407cc:	2005883a 	mov	r2,r4
   407d0:	28001216 	blt	r5,zero,4081c <__modsi3+0x58>
   407d4:	2900162e 	bgeu	r5,r4,40830 <__modsi3+0x6c>
   407d8:	01800804 	movi	r6,32
   407dc:	00c00044 	movi	r3,1
   407e0:	00000106 	br	407e8 <__modsi3+0x24>
   407e4:	30000a26 	beq	r6,zero,40810 <__modsi3+0x4c>
   407e8:	294b883a 	add	r5,r5,r5
   407ec:	31bfffc4 	addi	r6,r6,-1
   407f0:	18c7883a 	add	r3,r3,r3
   407f4:	293ffb36 	bltu	r5,r4,407e4 <__alt_data_end+0xfffce7e4>
   407f8:	18000526 	beq	r3,zero,40810 <__modsi3+0x4c>
   407fc:	1806d07a 	srli	r3,r3,1
   40800:	11400136 	bltu	r2,r5,40808 <__modsi3+0x44>
   40804:	1145c83a 	sub	r2,r2,r5
   40808:	280ad07a 	srli	r5,r5,1
   4080c:	183ffb1e 	bne	r3,zero,407fc <__alt_data_end+0xfffce7fc>
   40810:	38000126 	beq	r7,zero,40818 <__modsi3+0x54>
   40814:	0085c83a 	sub	r2,zero,r2
   40818:	f800283a 	ret
   4081c:	014bc83a 	sub	r5,zero,r5
   40820:	003fec06 	br	407d4 <__alt_data_end+0xfffce7d4>
   40824:	0109c83a 	sub	r4,zero,r4
   40828:	01c00044 	movi	r7,1
   4082c:	003fe706 	br	407cc <__alt_data_end+0xfffce7cc>
   40830:	00c00044 	movi	r3,1
   40834:	003ff106 	br	407fc <__alt_data_end+0xfffce7fc>

00040838 <__udivsi3>:
   40838:	200d883a 	mov	r6,r4
   4083c:	2900152e 	bgeu	r5,r4,40894 <__udivsi3+0x5c>
   40840:	28001416 	blt	r5,zero,40894 <__udivsi3+0x5c>
   40844:	00800804 	movi	r2,32
   40848:	00c00044 	movi	r3,1
   4084c:	00000206 	br	40858 <__udivsi3+0x20>
   40850:	10000e26 	beq	r2,zero,4088c <__udivsi3+0x54>
   40854:	28000516 	blt	r5,zero,4086c <__udivsi3+0x34>
   40858:	294b883a 	add	r5,r5,r5
   4085c:	10bfffc4 	addi	r2,r2,-1
   40860:	18c7883a 	add	r3,r3,r3
   40864:	293ffa36 	bltu	r5,r4,40850 <__alt_data_end+0xfffce850>
   40868:	18000826 	beq	r3,zero,4088c <__udivsi3+0x54>
   4086c:	0005883a 	mov	r2,zero
   40870:	31400236 	bltu	r6,r5,4087c <__udivsi3+0x44>
   40874:	314dc83a 	sub	r6,r6,r5
   40878:	10c4b03a 	or	r2,r2,r3
   4087c:	1806d07a 	srli	r3,r3,1
   40880:	280ad07a 	srli	r5,r5,1
   40884:	183ffa1e 	bne	r3,zero,40870 <__alt_data_end+0xfffce870>
   40888:	f800283a 	ret
   4088c:	0005883a 	mov	r2,zero
   40890:	f800283a 	ret
   40894:	00c00044 	movi	r3,1
   40898:	003ff406 	br	4086c <__alt_data_end+0xfffce86c>

0004089c <__umodsi3>:
   4089c:	2005883a 	mov	r2,r4
   408a0:	2900122e 	bgeu	r5,r4,408ec <__umodsi3+0x50>
   408a4:	28001116 	blt	r5,zero,408ec <__umodsi3+0x50>
   408a8:	01800804 	movi	r6,32
   408ac:	00c00044 	movi	r3,1
   408b0:	00000206 	br	408bc <__umodsi3+0x20>
   408b4:	30000c26 	beq	r6,zero,408e8 <__umodsi3+0x4c>
   408b8:	28000516 	blt	r5,zero,408d0 <__umodsi3+0x34>
   408bc:	294b883a 	add	r5,r5,r5
   408c0:	31bfffc4 	addi	r6,r6,-1
   408c4:	18c7883a 	add	r3,r3,r3
   408c8:	293ffa36 	bltu	r5,r4,408b4 <__alt_data_end+0xfffce8b4>
   408cc:	18000626 	beq	r3,zero,408e8 <__umodsi3+0x4c>
   408d0:	1806d07a 	srli	r3,r3,1
   408d4:	11400136 	bltu	r2,r5,408dc <__umodsi3+0x40>
   408d8:	1145c83a 	sub	r2,r2,r5
   408dc:	280ad07a 	srli	r5,r5,1
   408e0:	183ffb1e 	bne	r3,zero,408d0 <__alt_data_end+0xfffce8d0>
   408e4:	f800283a 	ret
   408e8:	f800283a 	ret
   408ec:	00c00044 	movi	r3,1
   408f0:	003ff706 	br	408d0 <__alt_data_end+0xfffce8d0>

000408f4 <__divsf3>:
   408f4:	defff504 	addi	sp,sp,-44
   408f8:	200cd5fa 	srli	r6,r4,23
   408fc:	dcc00415 	stw	r19,16(sp)
   40900:	2026d7fa 	srli	r19,r4,31
   40904:	00c02034 	movhi	r3,128
   40908:	dd800715 	stw	r22,28(sp)
   4090c:	dd000515 	stw	r20,20(sp)
   40910:	dc800315 	stw	r18,12(sp)
   40914:	18ffffc4 	addi	r3,r3,-1
   40918:	dfc00a15 	stw	ra,40(sp)
   4091c:	df000915 	stw	fp,36(sp)
   40920:	ddc00815 	stw	r23,32(sp)
   40924:	dd400615 	stw	r21,24(sp)
   40928:	dc400215 	stw	r17,8(sp)
   4092c:	dc000115 	stw	r16,4(sp)
   40930:	35003fcc 	andi	r20,r6,255
   40934:	1924703a 	and	r18,r3,r4
   40938:	9d803fcc 	andi	r22,r19,255
   4093c:	a0005226 	beq	r20,zero,40a88 <__divsf3+0x194>
   40940:	00803fc4 	movi	r2,255
   40944:	a0802e26 	beq	r20,r2,40a00 <__divsf3+0x10c>
   40948:	91002034 	orhi	r4,r18,128
   4094c:	202490fa 	slli	r18,r4,3
   40950:	a53fe044 	addi	r20,r20,-127
   40954:	0021883a 	mov	r16,zero
   40958:	002f883a 	mov	r23,zero
   4095c:	280cd5fa 	srli	r6,r5,23
   40960:	282ad7fa 	srli	r21,r5,31
   40964:	00c02034 	movhi	r3,128
   40968:	18ffffc4 	addi	r3,r3,-1
   4096c:	31803fcc 	andi	r6,r6,255
   40970:	1962703a 	and	r17,r3,r5
   40974:	af003fcc 	andi	fp,r21,255
   40978:	30004a26 	beq	r6,zero,40aa4 <__divsf3+0x1b0>
   4097c:	00803fc4 	movi	r2,255
   40980:	30804526 	beq	r6,r2,40a98 <__divsf3+0x1a4>
   40984:	89402034 	orhi	r5,r17,128
   40988:	282290fa 	slli	r17,r5,3
   4098c:	31bfe044 	addi	r6,r6,-127
   40990:	000b883a 	mov	r5,zero
   40994:	2c20b03a 	or	r16,r5,r16
   40998:	802090ba 	slli	r16,r16,2
   4099c:	00800134 	movhi	r2,4
   409a0:	10827004 	addi	r2,r2,2496
   409a4:	80a1883a 	add	r16,r16,r2
   409a8:	81000017 	ldw	r4,0(r16)
   409ac:	9d46f03a 	xor	r3,r19,r21
   409b0:	180f883a 	mov	r7,r3
   409b4:	18803fcc 	andi	r2,r3,255
   409b8:	a18dc83a 	sub	r6,r20,r6
   409bc:	2000683a 	jmp	r4
   409c0:	00040ba4 	muli	zero,zero,4142
   409c4:	00040a28 	cmpgeui	zero,zero,4136
   409c8:	00040b98 	cmpnei	zero,zero,4142
   409cc:	00040a14 	movui	zero,4136
   409d0:	00040b98 	cmpnei	zero,zero,4142
   409d4:	00040b70 	cmpltui	zero,zero,4141
   409d8:	00040b98 	cmpnei	zero,zero,4142
   409dc:	00040a14 	movui	zero,4136
   409e0:	00040a28 	cmpgeui	zero,zero,4136
   409e4:	00040a28 	cmpgeui	zero,zero,4136
   409e8:	00040b70 	cmpltui	zero,zero,4141
   409ec:	00040a14 	movui	zero,4136
   409f0:	00040c84 	movi	zero,4146
   409f4:	00040c84 	movi	zero,4146
   409f8:	00040c84 	movi	zero,4146
   409fc:	00040c38 	rdprs	zero,zero,4144
   40a00:	9000581e 	bne	r18,zero,40b64 <__divsf3+0x270>
   40a04:	04000204 	movi	r16,8
   40a08:	05c00084 	movi	r23,2
   40a0c:	003fd306 	br	4095c <__alt_data_end+0xfffce95c>
   40a10:	0023883a 	mov	r17,zero
   40a14:	e02d883a 	mov	r22,fp
   40a18:	282f883a 	mov	r23,r5
   40a1c:	00800084 	movi	r2,2
   40a20:	b8808f1e 	bne	r23,r2,40c60 <__divsf3+0x36c>
   40a24:	b005883a 	mov	r2,r22
   40a28:	11c0004c 	andi	r7,r2,1
   40a2c:	013fffc4 	movi	r4,-1
   40a30:	000d883a 	mov	r6,zero
   40a34:	21003fcc 	andi	r4,r4,255
   40a38:	200895fa 	slli	r4,r4,23
   40a3c:	38803fcc 	andi	r2,r7,255
   40a40:	00c02034 	movhi	r3,128
   40a44:	100497fa 	slli	r2,r2,31
   40a48:	18ffffc4 	addi	r3,r3,-1
   40a4c:	30c6703a 	and	r3,r6,r3
   40a50:	1906b03a 	or	r3,r3,r4
   40a54:	1884b03a 	or	r2,r3,r2
   40a58:	dfc00a17 	ldw	ra,40(sp)
   40a5c:	df000917 	ldw	fp,36(sp)
   40a60:	ddc00817 	ldw	r23,32(sp)
   40a64:	dd800717 	ldw	r22,28(sp)
   40a68:	dd400617 	ldw	r21,24(sp)
   40a6c:	dd000517 	ldw	r20,20(sp)
   40a70:	dcc00417 	ldw	r19,16(sp)
   40a74:	dc800317 	ldw	r18,12(sp)
   40a78:	dc400217 	ldw	r17,8(sp)
   40a7c:	dc000117 	ldw	r16,4(sp)
   40a80:	dec00b04 	addi	sp,sp,44
   40a84:	f800283a 	ret
   40a88:	90002b1e 	bne	r18,zero,40b38 <__divsf3+0x244>
   40a8c:	04000104 	movi	r16,4
   40a90:	05c00044 	movi	r23,1
   40a94:	003fb106 	br	4095c <__alt_data_end+0xfffce95c>
   40a98:	8800251e 	bne	r17,zero,40b30 <__divsf3+0x23c>
   40a9c:	01400084 	movi	r5,2
   40aa0:	00000206 	br	40aac <__divsf3+0x1b8>
   40aa4:	88001a1e 	bne	r17,zero,40b10 <__divsf3+0x21c>
   40aa8:	01400044 	movi	r5,1
   40aac:	8160b03a 	or	r16,r16,r5
   40ab0:	802090ba 	slli	r16,r16,2
   40ab4:	00c00134 	movhi	r3,4
   40ab8:	18c2b404 	addi	r3,r3,2768
   40abc:	80e1883a 	add	r16,r16,r3
   40ac0:	80c00017 	ldw	r3,0(r16)
   40ac4:	9d44f03a 	xor	r2,r19,r21
   40ac8:	a18dc83a 	sub	r6,r20,r6
   40acc:	1800683a 	jmp	r3
   40ad0:	00040a28 	cmpgeui	zero,zero,4136
   40ad4:	00040a28 	cmpgeui	zero,zero,4136
   40ad8:	00040c74 	movhi	zero,4145
   40adc:	00040a10 	cmplti	zero,zero,4136
   40ae0:	00040c74 	movhi	zero,4145
   40ae4:	00040b70 	cmpltui	zero,zero,4141
   40ae8:	00040c74 	movhi	zero,4145
   40aec:	00040a10 	cmplti	zero,zero,4136
   40af0:	00040a28 	cmpgeui	zero,zero,4136
   40af4:	00040a28 	cmpgeui	zero,zero,4136
   40af8:	00040b70 	cmpltui	zero,zero,4141
   40afc:	00040a10 	cmplti	zero,zero,4136
   40b00:	00040c84 	movi	zero,4146
   40b04:	00040c84 	movi	zero,4146
   40b08:	00040c84 	movi	zero,4146
   40b0c:	00040c9c 	xori	zero,zero,4146
   40b10:	8809883a 	mov	r4,r17
   40b14:	00414080 	call	41408 <__clzsi2>
   40b18:	10fffec4 	addi	r3,r2,-5
   40b1c:	10801d84 	addi	r2,r2,118
   40b20:	88e2983a 	sll	r17,r17,r3
   40b24:	008dc83a 	sub	r6,zero,r2
   40b28:	000b883a 	mov	r5,zero
   40b2c:	003f9906 	br	40994 <__alt_data_end+0xfffce994>
   40b30:	014000c4 	movi	r5,3
   40b34:	003f9706 	br	40994 <__alt_data_end+0xfffce994>
   40b38:	9009883a 	mov	r4,r18
   40b3c:	d9400015 	stw	r5,0(sp)
   40b40:	00414080 	call	41408 <__clzsi2>
   40b44:	10fffec4 	addi	r3,r2,-5
   40b48:	11801d84 	addi	r6,r2,118
   40b4c:	90e4983a 	sll	r18,r18,r3
   40b50:	01a9c83a 	sub	r20,zero,r6
   40b54:	0021883a 	mov	r16,zero
   40b58:	002f883a 	mov	r23,zero
   40b5c:	d9400017 	ldw	r5,0(sp)
   40b60:	003f7e06 	br	4095c <__alt_data_end+0xfffce95c>
   40b64:	04000304 	movi	r16,12
   40b68:	05c000c4 	movi	r23,3
   40b6c:	003f7b06 	br	4095c <__alt_data_end+0xfffce95c>
   40b70:	01802034 	movhi	r6,128
   40b74:	000f883a 	mov	r7,zero
   40b78:	31bfffc4 	addi	r6,r6,-1
   40b7c:	013fffc4 	movi	r4,-1
   40b80:	003fac06 	br	40a34 <__alt_data_end+0xfffcea34>
   40b84:	01400044 	movi	r5,1
   40b88:	2909c83a 	sub	r4,r5,r4
   40b8c:	00c006c4 	movi	r3,27
   40b90:	19004b0e 	bge	r3,r4,40cc0 <__divsf3+0x3cc>
   40b94:	114e703a 	and	r7,r2,r5
   40b98:	0009883a 	mov	r4,zero
   40b9c:	000d883a 	mov	r6,zero
   40ba0:	003fa406 	br	40a34 <__alt_data_end+0xfffcea34>
   40ba4:	9006917a 	slli	r3,r18,5
   40ba8:	8822917a 	slli	r17,r17,5
   40bac:	1c40372e 	bgeu	r3,r17,40c8c <__divsf3+0x398>
   40bb0:	31bfffc4 	addi	r6,r6,-1
   40bb4:	010006c4 	movi	r4,27
   40bb8:	000b883a 	mov	r5,zero
   40bbc:	180f883a 	mov	r7,r3
   40bc0:	294b883a 	add	r5,r5,r5
   40bc4:	18c7883a 	add	r3,r3,r3
   40bc8:	38000116 	blt	r7,zero,40bd0 <__divsf3+0x2dc>
   40bcc:	1c400236 	bltu	r3,r17,40bd8 <__divsf3+0x2e4>
   40bd0:	1c47c83a 	sub	r3,r3,r17
   40bd4:	29400054 	ori	r5,r5,1
   40bd8:	213fffc4 	addi	r4,r4,-1
   40bdc:	203ff71e 	bne	r4,zero,40bbc <__alt_data_end+0xfffcebbc>
   40be0:	1806c03a 	cmpne	r3,r3,zero
   40be4:	1962b03a 	or	r17,r3,r5
   40be8:	31001fc4 	addi	r4,r6,127
   40bec:	013fe50e 	bge	zero,r4,40b84 <__alt_data_end+0xfffceb84>
   40bf0:	88c001cc 	andi	r3,r17,7
   40bf4:	18000426 	beq	r3,zero,40c08 <__divsf3+0x314>
   40bf8:	88c003cc 	andi	r3,r17,15
   40bfc:	01400104 	movi	r5,4
   40c00:	19400126 	beq	r3,r5,40c08 <__divsf3+0x314>
   40c04:	8963883a 	add	r17,r17,r5
   40c08:	88c2002c 	andhi	r3,r17,2048
   40c0c:	18000426 	beq	r3,zero,40c20 <__divsf3+0x32c>
   40c10:	00fe0034 	movhi	r3,63488
   40c14:	18ffffc4 	addi	r3,r3,-1
   40c18:	31002004 	addi	r4,r6,128
   40c1c:	88e2703a 	and	r17,r17,r3
   40c20:	00c03f84 	movi	r3,254
   40c24:	193f8016 	blt	r3,r4,40a28 <__alt_data_end+0xfffcea28>
   40c28:	880c91ba 	slli	r6,r17,6
   40c2c:	11c0004c 	andi	r7,r2,1
   40c30:	300cd27a 	srli	r6,r6,9
   40c34:	003f7f06 	br	40a34 <__alt_data_end+0xfffcea34>
   40c38:	9080102c 	andhi	r2,r18,64
   40c3c:	10000226 	beq	r2,zero,40c48 <__divsf3+0x354>
   40c40:	8880102c 	andhi	r2,r17,64
   40c44:	10001826 	beq	r2,zero,40ca8 <__divsf3+0x3b4>
   40c48:	00802034 	movhi	r2,128
   40c4c:	91801034 	orhi	r6,r18,64
   40c50:	10bfffc4 	addi	r2,r2,-1
   40c54:	980f883a 	mov	r7,r19
   40c58:	308c703a 	and	r6,r6,r2
   40c5c:	003fc706 	br	40b7c <__alt_data_end+0xfffceb7c>
   40c60:	008000c4 	movi	r2,3
   40c64:	b8802d26 	beq	r23,r2,40d1c <__divsf3+0x428>
   40c68:	00c00044 	movi	r3,1
   40c6c:	b005883a 	mov	r2,r22
   40c70:	b8ffdd1e 	bne	r23,r3,40be8 <__alt_data_end+0xfffcebe8>
   40c74:	11c0004c 	andi	r7,r2,1
   40c78:	0009883a 	mov	r4,zero
   40c7c:	000d883a 	mov	r6,zero
   40c80:	003f6c06 	br	40a34 <__alt_data_end+0xfffcea34>
   40c84:	9023883a 	mov	r17,r18
   40c88:	003f6406 	br	40a1c <__alt_data_end+0xfffcea1c>
   40c8c:	1c47c83a 	sub	r3,r3,r17
   40c90:	01000684 	movi	r4,26
   40c94:	01400044 	movi	r5,1
   40c98:	003fc806 	br	40bbc <__alt_data_end+0xfffcebbc>
   40c9c:	9080102c 	andhi	r2,r18,64
   40ca0:	103fe926 	beq	r2,zero,40c48 <__alt_data_end+0xfffcec48>
   40ca4:	0023883a 	mov	r17,zero
   40ca8:	00802034 	movhi	r2,128
   40cac:	89801034 	orhi	r6,r17,64
   40cb0:	10bfffc4 	addi	r2,r2,-1
   40cb4:	a80f883a 	mov	r7,r21
   40cb8:	308c703a 	and	r6,r6,r2
   40cbc:	003faf06 	br	40b7c <__alt_data_end+0xfffceb7c>
   40cc0:	01c00804 	movi	r7,32
   40cc4:	390fc83a 	sub	r7,r7,r4
   40cc8:	89ce983a 	sll	r7,r17,r7
   40ccc:	890ad83a 	srl	r5,r17,r4
   40cd0:	380ec03a 	cmpne	r7,r7,zero
   40cd4:	29cab03a 	or	r5,r5,r7
   40cd8:	28c001cc 	andi	r3,r5,7
   40cdc:	18000426 	beq	r3,zero,40cf0 <__divsf3+0x3fc>
   40ce0:	28c003cc 	andi	r3,r5,15
   40ce4:	01000104 	movi	r4,4
   40ce8:	19000126 	beq	r3,r4,40cf0 <__divsf3+0x3fc>
   40cec:	290b883a 	add	r5,r5,r4
   40cf0:	28c1002c 	andhi	r3,r5,1024
   40cf4:	18000426 	beq	r3,zero,40d08 <__divsf3+0x414>
   40cf8:	11c0004c 	andi	r7,r2,1
   40cfc:	01000044 	movi	r4,1
   40d00:	000d883a 	mov	r6,zero
   40d04:	003f4b06 	br	40a34 <__alt_data_end+0xfffcea34>
   40d08:	280a91ba 	slli	r5,r5,6
   40d0c:	11c0004c 	andi	r7,r2,1
   40d10:	0009883a 	mov	r4,zero
   40d14:	280cd27a 	srli	r6,r5,9
   40d18:	003f4606 	br	40a34 <__alt_data_end+0xfffcea34>
   40d1c:	00802034 	movhi	r2,128
   40d20:	89801034 	orhi	r6,r17,64
   40d24:	10bfffc4 	addi	r2,r2,-1
   40d28:	b00f883a 	mov	r7,r22
   40d2c:	308c703a 	and	r6,r6,r2
   40d30:	003f9206 	br	40b7c <__alt_data_end+0xfffceb7c>

00040d34 <__mulsf3>:
   40d34:	defff504 	addi	sp,sp,-44
   40d38:	dc000115 	stw	r16,4(sp)
   40d3c:	2020d5fa 	srli	r16,r4,23
   40d40:	dd400615 	stw	r21,24(sp)
   40d44:	202ad7fa 	srli	r21,r4,31
   40d48:	dc800315 	stw	r18,12(sp)
   40d4c:	04802034 	movhi	r18,128
   40d50:	df000915 	stw	fp,36(sp)
   40d54:	dd000515 	stw	r20,20(sp)
   40d58:	94bfffc4 	addi	r18,r18,-1
   40d5c:	dfc00a15 	stw	ra,40(sp)
   40d60:	ddc00815 	stw	r23,32(sp)
   40d64:	dd800715 	stw	r22,28(sp)
   40d68:	dcc00415 	stw	r19,16(sp)
   40d6c:	dc400215 	stw	r17,8(sp)
   40d70:	84003fcc 	andi	r16,r16,255
   40d74:	9124703a 	and	r18,r18,r4
   40d78:	a829883a 	mov	r20,r21
   40d7c:	af003fcc 	andi	fp,r21,255
   40d80:	80005426 	beq	r16,zero,40ed4 <__mulsf3+0x1a0>
   40d84:	00803fc4 	movi	r2,255
   40d88:	80802f26 	beq	r16,r2,40e48 <__mulsf3+0x114>
   40d8c:	91002034 	orhi	r4,r18,128
   40d90:	202490fa 	slli	r18,r4,3
   40d94:	843fe044 	addi	r16,r16,-127
   40d98:	0023883a 	mov	r17,zero
   40d9c:	002f883a 	mov	r23,zero
   40da0:	2804d5fa 	srli	r2,r5,23
   40da4:	282cd7fa 	srli	r22,r5,31
   40da8:	01002034 	movhi	r4,128
   40dac:	213fffc4 	addi	r4,r4,-1
   40db0:	10803fcc 	andi	r2,r2,255
   40db4:	2166703a 	and	r19,r4,r5
   40db8:	b1803fcc 	andi	r6,r22,255
   40dbc:	10004c26 	beq	r2,zero,40ef0 <__mulsf3+0x1bc>
   40dc0:	00c03fc4 	movi	r3,255
   40dc4:	10c04726 	beq	r2,r3,40ee4 <__mulsf3+0x1b0>
   40dc8:	99002034 	orhi	r4,r19,128
   40dcc:	202690fa 	slli	r19,r4,3
   40dd0:	10bfe044 	addi	r2,r2,-127
   40dd4:	0007883a 	mov	r3,zero
   40dd8:	80a1883a 	add	r16,r16,r2
   40ddc:	010003c4 	movi	r4,15
   40de0:	1c44b03a 	or	r2,r3,r17
   40de4:	b56af03a 	xor	r21,r22,r21
   40de8:	81c00044 	addi	r7,r16,1
   40dec:	20806b36 	bltu	r4,r2,40f9c <__mulsf3+0x268>
   40df0:	100490ba 	slli	r2,r2,2
   40df4:	01000134 	movhi	r4,4
   40df8:	21038204 	addi	r4,r4,3592
   40dfc:	1105883a 	add	r2,r2,r4
   40e00:	10800017 	ldw	r2,0(r2)
   40e04:	1000683a 	jmp	r2
   40e08:	00040f9c 	xori	zero,zero,4158
   40e0c:	00040e5c 	xori	zero,zero,4153
   40e10:	00040e5c 	xori	zero,zero,4153
   40e14:	00040e58 	cmpnei	zero,zero,4153
   40e18:	00040f80 	call	40f8 <__alt_mem_RAM-0x3bf08>
   40e1c:	00040f80 	call	40f8 <__alt_mem_RAM-0x3bf08>
   40e20:	00040f6c 	andhi	zero,zero,4157
   40e24:	00040e58 	cmpnei	zero,zero,4153
   40e28:	00040f80 	call	40f8 <__alt_mem_RAM-0x3bf08>
   40e2c:	00040f6c 	andhi	zero,zero,4157
   40e30:	00040f80 	call	40f8 <__alt_mem_RAM-0x3bf08>
   40e34:	00040e58 	cmpnei	zero,zero,4153
   40e38:	00040f8c 	andi	zero,zero,4158
   40e3c:	00040f8c 	andi	zero,zero,4158
   40e40:	00040f8c 	andi	zero,zero,4158
   40e44:	0004109c 	xori	zero,zero,4162
   40e48:	90003b1e 	bne	r18,zero,40f38 <__mulsf3+0x204>
   40e4c:	04400204 	movi	r17,8
   40e50:	05c00084 	movi	r23,2
   40e54:	003fd206 	br	40da0 <__alt_data_end+0xfffceda0>
   40e58:	302b883a 	mov	r21,r6
   40e5c:	00800084 	movi	r2,2
   40e60:	18802626 	beq	r3,r2,40efc <__mulsf3+0x1c8>
   40e64:	008000c4 	movi	r2,3
   40e68:	1880b826 	beq	r3,r2,4114c <__mulsf3+0x418>
   40e6c:	00800044 	movi	r2,1
   40e70:	1880af1e 	bne	r3,r2,41130 <__mulsf3+0x3fc>
   40e74:	a829883a 	mov	r20,r21
   40e78:	0007883a 	mov	r3,zero
   40e7c:	0009883a 	mov	r4,zero
   40e80:	18803fcc 	andi	r2,r3,255
   40e84:	100695fa 	slli	r3,r2,23
   40e88:	a0803fcc 	andi	r2,r20,255
   40e8c:	100a97fa 	slli	r5,r2,31
   40e90:	00802034 	movhi	r2,128
   40e94:	10bfffc4 	addi	r2,r2,-1
   40e98:	2084703a 	and	r2,r4,r2
   40e9c:	10c4b03a 	or	r2,r2,r3
   40ea0:	1144b03a 	or	r2,r2,r5
   40ea4:	dfc00a17 	ldw	ra,40(sp)
   40ea8:	df000917 	ldw	fp,36(sp)
   40eac:	ddc00817 	ldw	r23,32(sp)
   40eb0:	dd800717 	ldw	r22,28(sp)
   40eb4:	dd400617 	ldw	r21,24(sp)
   40eb8:	dd000517 	ldw	r20,20(sp)
   40ebc:	dcc00417 	ldw	r19,16(sp)
   40ec0:	dc800317 	ldw	r18,12(sp)
   40ec4:	dc400217 	ldw	r17,8(sp)
   40ec8:	dc000117 	ldw	r16,4(sp)
   40ecc:	dec00b04 	addi	sp,sp,44
   40ed0:	f800283a 	ret
   40ed4:	90000d1e 	bne	r18,zero,40f0c <__mulsf3+0x1d8>
   40ed8:	04400104 	movi	r17,4
   40edc:	05c00044 	movi	r23,1
   40ee0:	003faf06 	br	40da0 <__alt_data_end+0xfffceda0>
   40ee4:	9806c03a 	cmpne	r3,r19,zero
   40ee8:	18c00084 	addi	r3,r3,2
   40eec:	003fba06 	br	40dd8 <__alt_data_end+0xfffcedd8>
   40ef0:	9800141e 	bne	r19,zero,40f44 <__mulsf3+0x210>
   40ef4:	00c00044 	movi	r3,1
   40ef8:	003fb706 	br	40dd8 <__alt_data_end+0xfffcedd8>
   40efc:	a829883a 	mov	r20,r21
   40f00:	00ffffc4 	movi	r3,-1
   40f04:	0009883a 	mov	r4,zero
   40f08:	003fdd06 	br	40e80 <__alt_data_end+0xfffcee80>
   40f0c:	9009883a 	mov	r4,r18
   40f10:	d9400015 	stw	r5,0(sp)
   40f14:	00414080 	call	41408 <__clzsi2>
   40f18:	10fffec4 	addi	r3,r2,-5
   40f1c:	10801d84 	addi	r2,r2,118
   40f20:	90e4983a 	sll	r18,r18,r3
   40f24:	00a1c83a 	sub	r16,zero,r2
   40f28:	0023883a 	mov	r17,zero
   40f2c:	002f883a 	mov	r23,zero
   40f30:	d9400017 	ldw	r5,0(sp)
   40f34:	003f9a06 	br	40da0 <__alt_data_end+0xfffceda0>
   40f38:	04400304 	movi	r17,12
   40f3c:	05c000c4 	movi	r23,3
   40f40:	003f9706 	br	40da0 <__alt_data_end+0xfffceda0>
   40f44:	9809883a 	mov	r4,r19
   40f48:	d9800015 	stw	r6,0(sp)
   40f4c:	00414080 	call	41408 <__clzsi2>
   40f50:	10fffec4 	addi	r3,r2,-5
   40f54:	10801d84 	addi	r2,r2,118
   40f58:	98e6983a 	sll	r19,r19,r3
   40f5c:	0085c83a 	sub	r2,zero,r2
   40f60:	0007883a 	mov	r3,zero
   40f64:	d9800017 	ldw	r6,0(sp)
   40f68:	003f9b06 	br	40dd8 <__alt_data_end+0xfffcedd8>
   40f6c:	01002034 	movhi	r4,128
   40f70:	0029883a 	mov	r20,zero
   40f74:	213fffc4 	addi	r4,r4,-1
   40f78:	00ffffc4 	movi	r3,-1
   40f7c:	003fc006 	br	40e80 <__alt_data_end+0xfffcee80>
   40f80:	9027883a 	mov	r19,r18
   40f84:	b807883a 	mov	r3,r23
   40f88:	003fb406 	br	40e5c <__alt_data_end+0xfffcee5c>
   40f8c:	9027883a 	mov	r19,r18
   40f90:	e02b883a 	mov	r21,fp
   40f94:	b807883a 	mov	r3,r23
   40f98:	003fb006 	br	40e5c <__alt_data_end+0xfffcee5c>
   40f9c:	9028d43a 	srli	r20,r18,16
   40fa0:	982cd43a 	srli	r22,r19,16
   40fa4:	94bfffcc 	andi	r18,r18,65535
   40fa8:	9cffffcc 	andi	r19,r19,65535
   40fac:	980b883a 	mov	r5,r19
   40fb0:	9009883a 	mov	r4,r18
   40fb4:	d9c00015 	stw	r7,0(sp)
   40fb8:	004146c0 	call	4146c <__mulsi3>
   40fbc:	a00b883a 	mov	r5,r20
   40fc0:	9809883a 	mov	r4,r19
   40fc4:	1023883a 	mov	r17,r2
   40fc8:	004146c0 	call	4146c <__mulsi3>
   40fcc:	a009883a 	mov	r4,r20
   40fd0:	b00b883a 	mov	r5,r22
   40fd4:	1027883a 	mov	r19,r2
   40fd8:	004146c0 	call	4146c <__mulsi3>
   40fdc:	b00b883a 	mov	r5,r22
   40fe0:	9009883a 	mov	r4,r18
   40fe4:	1029883a 	mov	r20,r2
   40fe8:	004146c0 	call	4146c <__mulsi3>
   40fec:	8806d43a 	srli	r3,r17,16
   40ff0:	14c5883a 	add	r2,r2,r19
   40ff4:	d9c00017 	ldw	r7,0(sp)
   40ff8:	1885883a 	add	r2,r3,r2
   40ffc:	14c0022e 	bgeu	r2,r19,41008 <__mulsf3+0x2d4>
   41000:	00c00074 	movhi	r3,1
   41004:	a0e9883a 	add	r20,r20,r3
   41008:	1026943a 	slli	r19,r2,16
   4100c:	8c7fffcc 	andi	r17,r17,65535
   41010:	1004d43a 	srli	r2,r2,16
   41014:	9c63883a 	add	r17,r19,r17
   41018:	882691ba 	slli	r19,r17,6
   4101c:	1505883a 	add	r2,r2,r20
   41020:	8822d6ba 	srli	r17,r17,26
   41024:	100891ba 	slli	r4,r2,6
   41028:	9826c03a 	cmpne	r19,r19,zero
   4102c:	9c62b03a 	or	r17,r19,r17
   41030:	8926b03a 	or	r19,r17,r4
   41034:	9882002c 	andhi	r2,r19,2048
   41038:	10000426 	beq	r2,zero,4104c <__mulsf3+0x318>
   4103c:	9804d07a 	srli	r2,r19,1
   41040:	9900004c 	andi	r4,r19,1
   41044:	3821883a 	mov	r16,r7
   41048:	1126b03a 	or	r19,r2,r4
   4104c:	80c01fc4 	addi	r3,r16,127
   41050:	00c0210e 	bge	zero,r3,410d8 <__mulsf3+0x3a4>
   41054:	988001cc 	andi	r2,r19,7
   41058:	10000426 	beq	r2,zero,4106c <__mulsf3+0x338>
   4105c:	988003cc 	andi	r2,r19,15
   41060:	01000104 	movi	r4,4
   41064:	11000126 	beq	r2,r4,4106c <__mulsf3+0x338>
   41068:	9927883a 	add	r19,r19,r4
   4106c:	9882002c 	andhi	r2,r19,2048
   41070:	10000426 	beq	r2,zero,41084 <__mulsf3+0x350>
   41074:	00be0034 	movhi	r2,63488
   41078:	10bfffc4 	addi	r2,r2,-1
   4107c:	80c02004 	addi	r3,r16,128
   41080:	98a6703a 	and	r19,r19,r2
   41084:	00803f84 	movi	r2,254
   41088:	10ff9c16 	blt	r2,r3,40efc <__alt_data_end+0xfffceefc>
   4108c:	980891ba 	slli	r4,r19,6
   41090:	a829883a 	mov	r20,r21
   41094:	2008d27a 	srli	r4,r4,9
   41098:	003f7906 	br	40e80 <__alt_data_end+0xfffcee80>
   4109c:	9080102c 	andhi	r2,r18,64
   410a0:	10000826 	beq	r2,zero,410c4 <__mulsf3+0x390>
   410a4:	9880102c 	andhi	r2,r19,64
   410a8:	1000061e 	bne	r2,zero,410c4 <__mulsf3+0x390>
   410ac:	00802034 	movhi	r2,128
   410b0:	99001034 	orhi	r4,r19,64
   410b4:	10bfffc4 	addi	r2,r2,-1
   410b8:	b029883a 	mov	r20,r22
   410bc:	2088703a 	and	r4,r4,r2
   410c0:	003fad06 	br	40f78 <__alt_data_end+0xfffcef78>
   410c4:	00802034 	movhi	r2,128
   410c8:	91001034 	orhi	r4,r18,64
   410cc:	10bfffc4 	addi	r2,r2,-1
   410d0:	2088703a 	and	r4,r4,r2
   410d4:	003fa806 	br	40f78 <__alt_data_end+0xfffcef78>
   410d8:	00800044 	movi	r2,1
   410dc:	10c7c83a 	sub	r3,r2,r3
   410e0:	008006c4 	movi	r2,27
   410e4:	10ff6316 	blt	r2,r3,40e74 <__alt_data_end+0xfffcee74>
   410e8:	00800804 	movi	r2,32
   410ec:	10c5c83a 	sub	r2,r2,r3
   410f0:	9884983a 	sll	r2,r19,r2
   410f4:	98c6d83a 	srl	r3,r19,r3
   410f8:	1004c03a 	cmpne	r2,r2,zero
   410fc:	1884b03a 	or	r2,r3,r2
   41100:	10c001cc 	andi	r3,r2,7
   41104:	18000426 	beq	r3,zero,41118 <__mulsf3+0x3e4>
   41108:	10c003cc 	andi	r3,r2,15
   4110c:	01000104 	movi	r4,4
   41110:	19000126 	beq	r3,r4,41118 <__mulsf3+0x3e4>
   41114:	1105883a 	add	r2,r2,r4
   41118:	10c1002c 	andhi	r3,r2,1024
   4111c:	18000626 	beq	r3,zero,41138 <__mulsf3+0x404>
   41120:	a829883a 	mov	r20,r21
   41124:	00c00044 	movi	r3,1
   41128:	0009883a 	mov	r4,zero
   4112c:	003f5406 	br	40e80 <__alt_data_end+0xfffcee80>
   41130:	3821883a 	mov	r16,r7
   41134:	003fc506 	br	4104c <__alt_data_end+0xfffcf04c>
   41138:	100491ba 	slli	r2,r2,6
   4113c:	a829883a 	mov	r20,r21
   41140:	0007883a 	mov	r3,zero
   41144:	1008d27a 	srli	r4,r2,9
   41148:	003f4d06 	br	40e80 <__alt_data_end+0xfffcee80>
   4114c:	00802034 	movhi	r2,128
   41150:	99001034 	orhi	r4,r19,64
   41154:	10bfffc4 	addi	r2,r2,-1
   41158:	a829883a 	mov	r20,r21
   4115c:	2088703a 	and	r4,r4,r2
   41160:	003f8506 	br	40f78 <__alt_data_end+0xfffcef78>

00041164 <__fixsfsi>:
   41164:	200ad5fa 	srli	r5,r4,23
   41168:	00c02034 	movhi	r3,128
   4116c:	18ffffc4 	addi	r3,r3,-1
   41170:	29403fcc 	andi	r5,r5,255
   41174:	00801f84 	movi	r2,126
   41178:	1906703a 	and	r3,r3,r4
   4117c:	2008d7fa 	srli	r4,r4,31
   41180:	11400e0e 	bge	r2,r5,411bc <__fixsfsi+0x58>
   41184:	00802744 	movi	r2,157
   41188:	11400816 	blt	r2,r5,411ac <__fixsfsi+0x48>
   4118c:	00802544 	movi	r2,149
   41190:	18c02034 	orhi	r3,r3,128
   41194:	11400b0e 	bge	r2,r5,411c4 <__fixsfsi+0x60>
   41198:	28bfda84 	addi	r2,r5,-150
   4119c:	1884983a 	sll	r2,r3,r2
   411a0:	20000726 	beq	r4,zero,411c0 <__fixsfsi+0x5c>
   411a4:	0085c83a 	sub	r2,zero,r2
   411a8:	f800283a 	ret
   411ac:	00a00034 	movhi	r2,32768
   411b0:	10bfffc4 	addi	r2,r2,-1
   411b4:	2085883a 	add	r2,r4,r2
   411b8:	f800283a 	ret
   411bc:	0005883a 	mov	r2,zero
   411c0:	f800283a 	ret
   411c4:	00802584 	movi	r2,150
   411c8:	1145c83a 	sub	r2,r2,r5
   411cc:	1884d83a 	srl	r2,r3,r2
   411d0:	003ff306 	br	411a0 <__alt_data_end+0xfffcf1a0>

000411d4 <__floatsisf>:
   411d4:	defffd04 	addi	sp,sp,-12
   411d8:	dfc00215 	stw	ra,8(sp)
   411dc:	dc400115 	stw	r17,4(sp)
   411e0:	dc000015 	stw	r16,0(sp)
   411e4:	20003526 	beq	r4,zero,412bc <__floatsisf+0xe8>
   411e8:	2021883a 	mov	r16,r4
   411ec:	2022d7fa 	srli	r17,r4,31
   411f0:	20003616 	blt	r4,zero,412cc <__floatsisf+0xf8>
   411f4:	8009883a 	mov	r4,r16
   411f8:	00414080 	call	41408 <__clzsi2>
   411fc:	00c02784 	movi	r3,158
   41200:	1887c83a 	sub	r3,r3,r2
   41204:	01002584 	movi	r4,150
   41208:	20c01416 	blt	r4,r3,4125c <__floatsisf+0x88>
   4120c:	20c9c83a 	sub	r4,r4,r3
   41210:	8120983a 	sll	r16,r16,r4
   41214:	00802034 	movhi	r2,128
   41218:	10bfffc4 	addi	r2,r2,-1
   4121c:	8809883a 	mov	r4,r17
   41220:	80a0703a 	and	r16,r16,r2
   41224:	18803fcc 	andi	r2,r3,255
   41228:	100695fa 	slli	r3,r2,23
   4122c:	20803fcc 	andi	r2,r4,255
   41230:	100897fa 	slli	r4,r2,31
   41234:	00802034 	movhi	r2,128
   41238:	10bfffc4 	addi	r2,r2,-1
   4123c:	8084703a 	and	r2,r16,r2
   41240:	10c4b03a 	or	r2,r2,r3
   41244:	1104b03a 	or	r2,r2,r4
   41248:	dfc00217 	ldw	ra,8(sp)
   4124c:	dc400117 	ldw	r17,4(sp)
   41250:	dc000017 	ldw	r16,0(sp)
   41254:	dec00304 	addi	sp,sp,12
   41258:	f800283a 	ret
   4125c:	01002644 	movi	r4,153
   41260:	20c01c16 	blt	r4,r3,412d4 <__floatsisf+0x100>
   41264:	20c9c83a 	sub	r4,r4,r3
   41268:	8120983a 	sll	r16,r16,r4
   4126c:	013f0034 	movhi	r4,64512
   41270:	213fffc4 	addi	r4,r4,-1
   41274:	814001cc 	andi	r5,r16,7
   41278:	8108703a 	and	r4,r16,r4
   4127c:	28000426 	beq	r5,zero,41290 <__floatsisf+0xbc>
   41280:	840003cc 	andi	r16,r16,15
   41284:	01400104 	movi	r5,4
   41288:	81400126 	beq	r16,r5,41290 <__floatsisf+0xbc>
   4128c:	2149883a 	add	r4,r4,r5
   41290:	2141002c 	andhi	r5,r4,1024
   41294:	28000526 	beq	r5,zero,412ac <__floatsisf+0xd8>
   41298:	00c027c4 	movi	r3,159
   4129c:	1887c83a 	sub	r3,r3,r2
   412a0:	00bf0034 	movhi	r2,64512
   412a4:	10bfffc4 	addi	r2,r2,-1
   412a8:	2088703a 	and	r4,r4,r2
   412ac:	202091ba 	slli	r16,r4,6
   412b0:	8809883a 	mov	r4,r17
   412b4:	8020d27a 	srli	r16,r16,9
   412b8:	003fda06 	br	41224 <__alt_data_end+0xfffcf224>
   412bc:	0009883a 	mov	r4,zero
   412c0:	0007883a 	mov	r3,zero
   412c4:	0021883a 	mov	r16,zero
   412c8:	003fd606 	br	41224 <__alt_data_end+0xfffcf224>
   412cc:	0121c83a 	sub	r16,zero,r4
   412d0:	003fc806 	br	411f4 <__alt_data_end+0xfffcf1f4>
   412d4:	01002e44 	movi	r4,185
   412d8:	20c9c83a 	sub	r4,r4,r3
   412dc:	01400144 	movi	r5,5
   412e0:	8108983a 	sll	r4,r16,r4
   412e4:	288bc83a 	sub	r5,r5,r2
   412e8:	8160d83a 	srl	r16,r16,r5
   412ec:	2008c03a 	cmpne	r4,r4,zero
   412f0:	8120b03a 	or	r16,r16,r4
   412f4:	003fdd06 	br	4126c <__alt_data_end+0xfffcf26c>

000412f8 <__extendsfdf2>:
   412f8:	200ad5fa 	srli	r5,r4,23
   412fc:	defffd04 	addi	sp,sp,-12
   41300:	dc400115 	stw	r17,4(sp)
   41304:	29403fcc 	andi	r5,r5,255
   41308:	29800044 	addi	r6,r5,1
   4130c:	04402034 	movhi	r17,128
   41310:	dc000015 	stw	r16,0(sp)
   41314:	8c7fffc4 	addi	r17,r17,-1
   41318:	dfc00215 	stw	ra,8(sp)
   4131c:	31803fcc 	andi	r6,r6,255
   41320:	00800044 	movi	r2,1
   41324:	8922703a 	and	r17,r17,r4
   41328:	2020d7fa 	srli	r16,r4,31
   4132c:	1180110e 	bge	r2,r6,41374 <__extendsfdf2+0x7c>
   41330:	880cd0fa 	srli	r6,r17,3
   41334:	8822977a 	slli	r17,r17,29
   41338:	2940e004 	addi	r5,r5,896
   4133c:	2941ffcc 	andi	r5,r5,2047
   41340:	2804953a 	slli	r2,r5,20
   41344:	01400434 	movhi	r5,16
   41348:	800697fa 	slli	r3,r16,31
   4134c:	297fffc4 	addi	r5,r5,-1
   41350:	314a703a 	and	r5,r6,r5
   41354:	288ab03a 	or	r5,r5,r2
   41358:	28c6b03a 	or	r3,r5,r3
   4135c:	8805883a 	mov	r2,r17
   41360:	dfc00217 	ldw	ra,8(sp)
   41364:	dc400117 	ldw	r17,4(sp)
   41368:	dc000017 	ldw	r16,0(sp)
   4136c:	dec00304 	addi	sp,sp,12
   41370:	f800283a 	ret
   41374:	2800111e 	bne	r5,zero,413bc <__extendsfdf2+0xc4>
   41378:	88001c26 	beq	r17,zero,413ec <__extendsfdf2+0xf4>
   4137c:	8809883a 	mov	r4,r17
   41380:	00414080 	call	41408 <__clzsi2>
   41384:	00c00284 	movi	r3,10
   41388:	18801b16 	blt	r3,r2,413f8 <__extendsfdf2+0x100>
   4138c:	018002c4 	movi	r6,11
   41390:	308dc83a 	sub	r6,r6,r2
   41394:	11000544 	addi	r4,r2,21
   41398:	8986d83a 	srl	r3,r17,r6
   4139c:	8922983a 	sll	r17,r17,r4
   413a0:	0180e244 	movi	r6,905
   413a4:	01400434 	movhi	r5,16
   413a8:	3085c83a 	sub	r2,r6,r2
   413ac:	297fffc4 	addi	r5,r5,-1
   413b0:	194c703a 	and	r6,r3,r5
   413b4:	1141ffcc 	andi	r5,r2,2047
   413b8:	003fe006 	br	4133c <__alt_data_end+0xfffcf33c>
   413bc:	88000826 	beq	r17,zero,413e0 <__extendsfdf2+0xe8>
   413c0:	880cd0fa 	srli	r6,r17,3
   413c4:	00800434 	movhi	r2,16
   413c8:	10bfffc4 	addi	r2,r2,-1
   413cc:	31800234 	orhi	r6,r6,8
   413d0:	8822977a 	slli	r17,r17,29
   413d4:	308c703a 	and	r6,r6,r2
   413d8:	0141ffc4 	movi	r5,2047
   413dc:	003fd706 	br	4133c <__alt_data_end+0xfffcf33c>
   413e0:	0141ffc4 	movi	r5,2047
   413e4:	000d883a 	mov	r6,zero
   413e8:	003fd406 	br	4133c <__alt_data_end+0xfffcf33c>
   413ec:	000b883a 	mov	r5,zero
   413f0:	000d883a 	mov	r6,zero
   413f4:	003fd106 	br	4133c <__alt_data_end+0xfffcf33c>
   413f8:	11bffd44 	addi	r6,r2,-11
   413fc:	8986983a 	sll	r3,r17,r6
   41400:	0023883a 	mov	r17,zero
   41404:	003fe606 	br	413a0 <__alt_data_end+0xfffcf3a0>

00041408 <__clzsi2>:
   41408:	00bfffd4 	movui	r2,65535
   4140c:	11000536 	bltu	r2,r4,41424 <__clzsi2+0x1c>
   41410:	00803fc4 	movi	r2,255
   41414:	11000f36 	bltu	r2,r4,41454 <__clzsi2+0x4c>
   41418:	00800804 	movi	r2,32
   4141c:	0007883a 	mov	r3,zero
   41420:	00000506 	br	41438 <__clzsi2+0x30>
   41424:	00804034 	movhi	r2,256
   41428:	10bfffc4 	addi	r2,r2,-1
   4142c:	11000c2e 	bgeu	r2,r4,41460 <__clzsi2+0x58>
   41430:	00800204 	movi	r2,8
   41434:	00c00604 	movi	r3,24
   41438:	20c8d83a 	srl	r4,r4,r3
   4143c:	00c00174 	movhi	r3,5
   41440:	18d9de04 	addi	r3,r3,26488
   41444:	1909883a 	add	r4,r3,r4
   41448:	20c00003 	ldbu	r3,0(r4)
   4144c:	10c5c83a 	sub	r2,r2,r3
   41450:	f800283a 	ret
   41454:	00800604 	movi	r2,24
   41458:	00c00204 	movi	r3,8
   4145c:	003ff606 	br	41438 <__alt_data_end+0xfffcf438>
   41460:	00800404 	movi	r2,16
   41464:	1007883a 	mov	r3,r2
   41468:	003ff306 	br	41438 <__alt_data_end+0xfffcf438>

0004146c <__mulsi3>:
   4146c:	0005883a 	mov	r2,zero
   41470:	20000726 	beq	r4,zero,41490 <__mulsi3+0x24>
   41474:	20c0004c 	andi	r3,r4,1
   41478:	2008d07a 	srli	r4,r4,1
   4147c:	18000126 	beq	r3,zero,41484 <__mulsi3+0x18>
   41480:	1145883a 	add	r2,r2,r5
   41484:	294b883a 	add	r5,r5,r5
   41488:	203ffa1e 	bne	r4,zero,41474 <__alt_data_end+0xfffcf474>
   4148c:	f800283a 	ret
   41490:	f800283a 	ret

00041494 <_printf_r>:
   41494:	defffd04 	addi	sp,sp,-12
   41498:	2805883a 	mov	r2,r5
   4149c:	dfc00015 	stw	ra,0(sp)
   414a0:	d9800115 	stw	r6,4(sp)
   414a4:	d9c00215 	stw	r7,8(sp)
   414a8:	21400217 	ldw	r5,8(r4)
   414ac:	d9c00104 	addi	r7,sp,4
   414b0:	100d883a 	mov	r6,r2
   414b4:	0043a0c0 	call	43a0c <___vfprintf_internal_r>
   414b8:	dfc00017 	ldw	ra,0(sp)
   414bc:	dec00304 	addi	sp,sp,12
   414c0:	f800283a 	ret

000414c4 <printf>:
   414c4:	defffc04 	addi	sp,sp,-16
   414c8:	dfc00015 	stw	ra,0(sp)
   414cc:	d9400115 	stw	r5,4(sp)
   414d0:	d9800215 	stw	r6,8(sp)
   414d4:	d9c00315 	stw	r7,12(sp)
   414d8:	008001b4 	movhi	r2,6
   414dc:	10a18604 	addi	r2,r2,-31208
   414e0:	10800017 	ldw	r2,0(r2)
   414e4:	200b883a 	mov	r5,r4
   414e8:	d9800104 	addi	r6,sp,4
   414ec:	11000217 	ldw	r4,8(r2)
   414f0:	0045ce80 	call	45ce8 <__vfprintf_internal>
   414f4:	dfc00017 	ldw	ra,0(sp)
   414f8:	dec00404 	addi	sp,sp,16
   414fc:	f800283a 	ret

00041500 <_putchar_r>:
   41500:	21800217 	ldw	r6,8(r4)
   41504:	004a8ac1 	jmpi	4a8ac <_putc_r>

00041508 <putchar>:
   41508:	008001b4 	movhi	r2,6
   4150c:	10a18604 	addi	r2,r2,-31208
   41510:	200b883a 	mov	r5,r4
   41514:	11000017 	ldw	r4,0(r2)
   41518:	21800217 	ldw	r6,8(r4)
   4151c:	004a8ac1 	jmpi	4a8ac <_putc_r>

00041520 <_puts_r>:
   41520:	defff604 	addi	sp,sp,-40
   41524:	dc000715 	stw	r16,28(sp)
   41528:	2021883a 	mov	r16,r4
   4152c:	2809883a 	mov	r4,r5
   41530:	dc400815 	stw	r17,32(sp)
   41534:	dfc00915 	stw	ra,36(sp)
   41538:	2823883a 	mov	r17,r5
   4153c:	00416b80 	call	416b8 <strlen>
   41540:	10c00044 	addi	r3,r2,1
   41544:	d8800115 	stw	r2,4(sp)
   41548:	00800174 	movhi	r2,5
   4154c:	109a1e04 	addi	r2,r2,26744
   41550:	d8800215 	stw	r2,8(sp)
   41554:	00800044 	movi	r2,1
   41558:	d8800315 	stw	r2,12(sp)
   4155c:	00800084 	movi	r2,2
   41560:	dc400015 	stw	r17,0(sp)
   41564:	d8c00615 	stw	r3,24(sp)
   41568:	dec00415 	stw	sp,16(sp)
   4156c:	d8800515 	stw	r2,20(sp)
   41570:	80000226 	beq	r16,zero,4157c <_puts_r+0x5c>
   41574:	80800e17 	ldw	r2,56(r16)
   41578:	10001426 	beq	r2,zero,415cc <_puts_r+0xac>
   4157c:	81400217 	ldw	r5,8(r16)
   41580:	2880030b 	ldhu	r2,12(r5)
   41584:	10c8000c 	andi	r3,r2,8192
   41588:	1800061e 	bne	r3,zero,415a4 <_puts_r+0x84>
   4158c:	29001917 	ldw	r4,100(r5)
   41590:	00f7ffc4 	movi	r3,-8193
   41594:	10880014 	ori	r2,r2,8192
   41598:	20c6703a 	and	r3,r4,r3
   4159c:	2880030d 	sth	r2,12(r5)
   415a0:	28c01915 	stw	r3,100(r5)
   415a4:	d9800404 	addi	r6,sp,16
   415a8:	8009883a 	mov	r4,r16
   415ac:	00482500 	call	48250 <__sfvwrite_r>
   415b0:	1000091e 	bne	r2,zero,415d8 <_puts_r+0xb8>
   415b4:	00800284 	movi	r2,10
   415b8:	dfc00917 	ldw	ra,36(sp)
   415bc:	dc400817 	ldw	r17,32(sp)
   415c0:	dc000717 	ldw	r16,28(sp)
   415c4:	dec00a04 	addi	sp,sp,40
   415c8:	f800283a 	ret
   415cc:	8009883a 	mov	r4,r16
   415d0:	0047dcc0 	call	47dcc <__sinit>
   415d4:	003fe906 	br	4157c <__alt_data_end+0xfffcf57c>
   415d8:	00bfffc4 	movi	r2,-1
   415dc:	003ff606 	br	415b8 <__alt_data_end+0xfffcf5b8>

000415e0 <puts>:
   415e0:	008001b4 	movhi	r2,6
   415e4:	10a18604 	addi	r2,r2,-31208
   415e8:	200b883a 	mov	r5,r4
   415ec:	11000017 	ldw	r4,0(r2)
   415f0:	00415201 	jmpi	41520 <_puts_r>

000415f4 <_sprintf_r>:
   415f4:	deffe404 	addi	sp,sp,-112
   415f8:	2807883a 	mov	r3,r5
   415fc:	dfc01a15 	stw	ra,104(sp)
   41600:	d9c01b15 	stw	r7,108(sp)
   41604:	00a00034 	movhi	r2,32768
   41608:	10bfffc4 	addi	r2,r2,-1
   4160c:	02008204 	movi	r8,520
   41610:	d8800215 	stw	r2,8(sp)
   41614:	d8800515 	stw	r2,20(sp)
   41618:	d9c01b04 	addi	r7,sp,108
   4161c:	d80b883a 	mov	r5,sp
   41620:	00bfffc4 	movi	r2,-1
   41624:	d8c00015 	stw	r3,0(sp)
   41628:	d8c00415 	stw	r3,16(sp)
   4162c:	da00030d 	sth	r8,12(sp)
   41630:	d880038d 	sth	r2,14(sp)
   41634:	00417500 	call	41750 <___svfprintf_internal_r>
   41638:	d8c00017 	ldw	r3,0(sp)
   4163c:	18000005 	stb	zero,0(r3)
   41640:	dfc01a17 	ldw	ra,104(sp)
   41644:	dec01c04 	addi	sp,sp,112
   41648:	f800283a 	ret

0004164c <sprintf>:
   4164c:	deffe304 	addi	sp,sp,-116
   41650:	2007883a 	mov	r3,r4
   41654:	dfc01a15 	stw	ra,104(sp)
   41658:	d9801b15 	stw	r6,108(sp)
   4165c:	d9c01c15 	stw	r7,112(sp)
   41660:	010001b4 	movhi	r4,6
   41664:	21218604 	addi	r4,r4,-31208
   41668:	21000017 	ldw	r4,0(r4)
   4166c:	00a00034 	movhi	r2,32768
   41670:	10bfffc4 	addi	r2,r2,-1
   41674:	280d883a 	mov	r6,r5
   41678:	02008204 	movi	r8,520
   4167c:	d8800215 	stw	r2,8(sp)
   41680:	d8800515 	stw	r2,20(sp)
   41684:	d9c01b04 	addi	r7,sp,108
   41688:	d80b883a 	mov	r5,sp
   4168c:	00bfffc4 	movi	r2,-1
   41690:	d8c00015 	stw	r3,0(sp)
   41694:	d8c00415 	stw	r3,16(sp)
   41698:	da00030d 	sth	r8,12(sp)
   4169c:	d880038d 	sth	r2,14(sp)
   416a0:	00417500 	call	41750 <___svfprintf_internal_r>
   416a4:	d8c00017 	ldw	r3,0(sp)
   416a8:	18000005 	stb	zero,0(r3)
   416ac:	dfc01a17 	ldw	ra,104(sp)
   416b0:	dec01d04 	addi	sp,sp,116
   416b4:	f800283a 	ret

000416b8 <strlen>:
   416b8:	208000cc 	andi	r2,r4,3
   416bc:	10002026 	beq	r2,zero,41740 <strlen+0x88>
   416c0:	20800007 	ldb	r2,0(r4)
   416c4:	10002026 	beq	r2,zero,41748 <strlen+0x90>
   416c8:	2005883a 	mov	r2,r4
   416cc:	00000206 	br	416d8 <strlen+0x20>
   416d0:	10c00007 	ldb	r3,0(r2)
   416d4:	18001826 	beq	r3,zero,41738 <strlen+0x80>
   416d8:	10800044 	addi	r2,r2,1
   416dc:	10c000cc 	andi	r3,r2,3
   416e0:	183ffb1e 	bne	r3,zero,416d0 <__alt_data_end+0xfffcf6d0>
   416e4:	10c00017 	ldw	r3,0(r2)
   416e8:	01ffbff4 	movhi	r7,65279
   416ec:	39ffbfc4 	addi	r7,r7,-257
   416f0:	00ca303a 	nor	r5,zero,r3
   416f4:	01a02074 	movhi	r6,32897
   416f8:	19c7883a 	add	r3,r3,r7
   416fc:	31a02004 	addi	r6,r6,-32640
   41700:	1946703a 	and	r3,r3,r5
   41704:	1986703a 	and	r3,r3,r6
   41708:	1800091e 	bne	r3,zero,41730 <strlen+0x78>
   4170c:	10800104 	addi	r2,r2,4
   41710:	10c00017 	ldw	r3,0(r2)
   41714:	19cb883a 	add	r5,r3,r7
   41718:	00c6303a 	nor	r3,zero,r3
   4171c:	28c6703a 	and	r3,r5,r3
   41720:	1986703a 	and	r3,r3,r6
   41724:	183ff926 	beq	r3,zero,4170c <__alt_data_end+0xfffcf70c>
   41728:	00000106 	br	41730 <strlen+0x78>
   4172c:	10800044 	addi	r2,r2,1
   41730:	10c00007 	ldb	r3,0(r2)
   41734:	183ffd1e 	bne	r3,zero,4172c <__alt_data_end+0xfffcf72c>
   41738:	1105c83a 	sub	r2,r2,r4
   4173c:	f800283a 	ret
   41740:	2005883a 	mov	r2,r4
   41744:	003fe706 	br	416e4 <__alt_data_end+0xfffcf6e4>
   41748:	0005883a 	mov	r2,zero
   4174c:	f800283a 	ret

00041750 <___svfprintf_internal_r>:
   41750:	deffb704 	addi	sp,sp,-292
   41754:	dfc04815 	stw	ra,288(sp)
   41758:	ddc04615 	stw	r23,280(sp)
   4175c:	d9402d15 	stw	r5,180(sp)
   41760:	d9003915 	stw	r4,228(sp)
   41764:	302f883a 	mov	r23,r6
   41768:	d9c02e15 	stw	r7,184(sp)
   4176c:	df004715 	stw	fp,284(sp)
   41770:	dd804515 	stw	r22,276(sp)
   41774:	dd404415 	stw	r21,272(sp)
   41778:	dd004315 	stw	r20,268(sp)
   4177c:	dcc04215 	stw	r19,264(sp)
   41780:	dc804115 	stw	r18,260(sp)
   41784:	dc404015 	stw	r17,256(sp)
   41788:	dc003f15 	stw	r16,252(sp)
   4178c:	004894c0 	call	4894c <_localeconv_r>
   41790:	10800017 	ldw	r2,0(r2)
   41794:	1009883a 	mov	r4,r2
   41798:	d8803415 	stw	r2,208(sp)
   4179c:	00416b80 	call	416b8 <strlen>
   417a0:	d8c02d17 	ldw	r3,180(sp)
   417a4:	d8803815 	stw	r2,224(sp)
   417a8:	1880030b 	ldhu	r2,12(r3)
   417ac:	1080200c 	andi	r2,r2,128
   417b0:	10000226 	beq	r2,zero,417bc <___svfprintf_internal_r+0x6c>
   417b4:	18800417 	ldw	r2,16(r3)
   417b8:	1006b126 	beq	r2,zero,43280 <___svfprintf_internal_r+0x1b30>
   417bc:	dcc03917 	ldw	r19,228(sp)
   417c0:	d8c00404 	addi	r3,sp,16
   417c4:	05400174 	movhi	r21,5
   417c8:	d9001e04 	addi	r4,sp,120
   417cc:	ad5a2f84 	addi	r21,r21,26814
   417d0:	d8c01e15 	stw	r3,120(sp)
   417d4:	d8002015 	stw	zero,128(sp)
   417d8:	d8001f15 	stw	zero,124(sp)
   417dc:	d8003315 	stw	zero,204(sp)
   417e0:	d8003615 	stw	zero,216(sp)
   417e4:	d8003715 	stw	zero,220(sp)
   417e8:	1811883a 	mov	r8,r3
   417ec:	d8003a15 	stw	zero,232(sp)
   417f0:	d8003b15 	stw	zero,236(sp)
   417f4:	d8002f15 	stw	zero,188(sp)
   417f8:	d9002815 	stw	r4,160(sp)
   417fc:	b8800007 	ldb	r2,0(r23)
   41800:	10027726 	beq	r2,zero,421e0 <___svfprintf_internal_r+0xa90>
   41804:	00c00944 	movi	r3,37
   41808:	b823883a 	mov	r17,r23
   4180c:	10c0021e 	bne	r2,r3,41818 <___svfprintf_internal_r+0xc8>
   41810:	00001406 	br	41864 <___svfprintf_internal_r+0x114>
   41814:	10c00326 	beq	r2,r3,41824 <___svfprintf_internal_r+0xd4>
   41818:	8c400044 	addi	r17,r17,1
   4181c:	88800007 	ldb	r2,0(r17)
   41820:	103ffc1e 	bne	r2,zero,41814 <__alt_data_end+0xfffcf814>
   41824:	8de1c83a 	sub	r16,r17,r23
   41828:	80000e26 	beq	r16,zero,41864 <___svfprintf_internal_r+0x114>
   4182c:	d8c02017 	ldw	r3,128(sp)
   41830:	d8801f17 	ldw	r2,124(sp)
   41834:	45c00015 	stw	r23,0(r8)
   41838:	1c07883a 	add	r3,r3,r16
   4183c:	10800044 	addi	r2,r2,1
   41840:	d8c02015 	stw	r3,128(sp)
   41844:	44000115 	stw	r16,4(r8)
   41848:	d8801f15 	stw	r2,124(sp)
   4184c:	00c001c4 	movi	r3,7
   41850:	18809916 	blt	r3,r2,41ab8 <___svfprintf_internal_r+0x368>
   41854:	42000204 	addi	r8,r8,8
   41858:	d9402f17 	ldw	r5,188(sp)
   4185c:	2c0b883a 	add	r5,r5,r16
   41860:	d9402f15 	stw	r5,188(sp)
   41864:	88800007 	ldb	r2,0(r17)
   41868:	10009a26 	beq	r2,zero,41ad4 <___svfprintf_internal_r+0x384>
   4186c:	8dc00044 	addi	r23,r17,1
   41870:	8c400047 	ldb	r17,1(r17)
   41874:	0021883a 	mov	r16,zero
   41878:	00bfffc4 	movi	r2,-1
   4187c:	0025883a 	mov	r18,zero
   41880:	dc002905 	stb	r16,164(sp)
   41884:	d8002785 	stb	zero,158(sp)
   41888:	d8002b05 	stb	zero,172(sp)
   4188c:	d8802a15 	stw	r2,168(sp)
   41890:	d8003115 	stw	zero,196(sp)
   41894:	05001604 	movi	r20,88
   41898:	05800244 	movi	r22,9
   4189c:	4039883a 	mov	fp,r8
   418a0:	9021883a 	mov	r16,r18
   418a4:	bdc00044 	addi	r23,r23,1
   418a8:	88bff804 	addi	r2,r17,-32
   418ac:	a0831e36 	bltu	r20,r2,42528 <___svfprintf_internal_r+0xdd8>
   418b0:	100490ba 	slli	r2,r2,2
   418b4:	00c00134 	movhi	r3,4
   418b8:	18c63204 	addi	r3,r3,6344
   418bc:	10c5883a 	add	r2,r2,r3
   418c0:	10800017 	ldw	r2,0(r2)
   418c4:	1000683a 	jmp	r2
   418c8:	00042470 	cmpltui	zero,zero,4241
   418cc:	00042528 	cmpgeui	zero,zero,4244
   418d0:	00042528 	cmpgeui	zero,zero,4244
   418d4:	00042464 	muli	zero,zero,4241
   418d8:	00042528 	cmpgeui	zero,zero,4244
   418dc:	00042528 	cmpgeui	zero,zero,4244
   418e0:	00042528 	cmpgeui	zero,zero,4244
   418e4:	00042528 	cmpgeui	zero,zero,4244
   418e8:	00042528 	cmpgeui	zero,zero,4244
   418ec:	00042528 	cmpgeui	zero,zero,4244
   418f0:	00041b30 	cmpltui	zero,zero,4204
   418f4:	00042374 	movhi	zero,4237
   418f8:	00042528 	cmpgeui	zero,zero,4244
   418fc:	00041a3c 	xorhi	zero,zero,4200
   41900:	00041b54 	movui	zero,4205
   41904:	00042528 	cmpgeui	zero,zero,4244
   41908:	00041be0 	cmpeqi	zero,zero,4207
   4190c:	00041ba4 	muli	zero,zero,4206
   41910:	00041ba4 	muli	zero,zero,4206
   41914:	00041ba4 	muli	zero,zero,4206
   41918:	00041ba4 	muli	zero,zero,4206
   4191c:	00041ba4 	muli	zero,zero,4206
   41920:	00041ba4 	muli	zero,zero,4206
   41924:	00041ba4 	muli	zero,zero,4206
   41928:	00041ba4 	muli	zero,zero,4206
   4192c:	00041ba4 	muli	zero,zero,4206
   41930:	00042528 	cmpgeui	zero,zero,4244
   41934:	00042528 	cmpgeui	zero,zero,4244
   41938:	00042528 	cmpgeui	zero,zero,4244
   4193c:	00042528 	cmpgeui	zero,zero,4244
   41940:	00042528 	cmpgeui	zero,zero,4244
   41944:	00042528 	cmpgeui	zero,zero,4244
   41948:	00042528 	cmpgeui	zero,zero,4244
   4194c:	00042528 	cmpgeui	zero,zero,4244
   41950:	00042528 	cmpgeui	zero,zero,4244
   41954:	00042528 	cmpgeui	zero,zero,4244
   41958:	00041ca4 	muli	zero,zero,4210
   4195c:	00041bec 	andhi	zero,zero,4207
   41960:	00042528 	cmpgeui	zero,zero,4244
   41964:	00041bec 	andhi	zero,zero,4207
   41968:	00042528 	cmpgeui	zero,zero,4244
   4196c:	00042528 	cmpgeui	zero,zero,4244
   41970:	00042528 	cmpgeui	zero,zero,4244
   41974:	00042528 	cmpgeui	zero,zero,4244
   41978:	00041c98 	cmpnei	zero,zero,4210
   4197c:	00042528 	cmpgeui	zero,zero,4244
   41980:	00042528 	cmpgeui	zero,zero,4244
   41984:	00041d6c 	andhi	zero,zero,4213
   41988:	00042528 	cmpgeui	zero,zero,4244
   4198c:	00042528 	cmpgeui	zero,zero,4244
   41990:	00042528 	cmpgeui	zero,zero,4244
   41994:	00042528 	cmpgeui	zero,zero,4244
   41998:	00042528 	cmpgeui	zero,zero,4244
   4199c:	000421e8 	cmpgeui	zero,zero,4231
   419a0:	00042528 	cmpgeui	zero,zero,4244
   419a4:	00042528 	cmpgeui	zero,zero,4244
   419a8:	00042254 	movui	zero,4233
   419ac:	00042528 	cmpgeui	zero,zero,4244
   419b0:	00042528 	cmpgeui	zero,zero,4244
   419b4:	00042528 	cmpgeui	zero,zero,4244
   419b8:	00042528 	cmpgeui	zero,zero,4244
   419bc:	00042528 	cmpgeui	zero,zero,4244
   419c0:	00042528 	cmpgeui	zero,zero,4244
   419c4:	00042528 	cmpgeui	zero,zero,4244
   419c8:	00042528 	cmpgeui	zero,zero,4244
   419cc:	00042528 	cmpgeui	zero,zero,4244
   419d0:	00042528 	cmpgeui	zero,zero,4244
   419d4:	00042310 	cmplti	zero,zero,4236
   419d8:	00042490 	cmplti	zero,zero,4242
   419dc:	00041bec 	andhi	zero,zero,4207
   419e0:	00041bec 	andhi	zero,zero,4207
   419e4:	00041bec 	andhi	zero,zero,4207
   419e8:	00042504 	movi	zero,4244
   419ec:	00042490 	cmplti	zero,zero,4242
   419f0:	00042528 	cmpgeui	zero,zero,4244
   419f4:	00042528 	cmpgeui	zero,zero,4244
   419f8:	000424b0 	cmpltui	zero,zero,4242
   419fc:	00042528 	cmpgeui	zero,zero,4244
   41a00:	000424c4 	movi	zero,4243
   41a04:	00042354 	movui	zero,4237
   41a08:	00041a48 	cmpgei	zero,zero,4201
   41a0c:	0004238c 	andi	zero,zero,4238
   41a10:	00042528 	cmpgeui	zero,zero,4244
   41a14:	00042398 	cmpnei	zero,zero,4238
   41a18:	00042528 	cmpgeui	zero,zero,4244
   41a1c:	000423fc 	xorhi	zero,zero,4239
   41a20:	00042528 	cmpgeui	zero,zero,4244
   41a24:	00042528 	cmpgeui	zero,zero,4244
   41a28:	0004241c 	xori	zero,zero,4240
   41a2c:	d8c03117 	ldw	r3,196(sp)
   41a30:	d8802e15 	stw	r2,184(sp)
   41a34:	00c7c83a 	sub	r3,zero,r3
   41a38:	d8c03115 	stw	r3,196(sp)
   41a3c:	84000114 	ori	r16,r16,4
   41a40:	bc400007 	ldb	r17,0(r23)
   41a44:	003f9706 	br	418a4 <__alt_data_end+0xfffcf8a4>
   41a48:	00800c04 	movi	r2,48
   41a4c:	d8802705 	stb	r2,156(sp)
   41a50:	00801e04 	movi	r2,120
   41a54:	d8802745 	stb	r2,157(sp)
   41a58:	d9002a17 	ldw	r4,168(sp)
   41a5c:	d8802e17 	ldw	r2,184(sp)
   41a60:	d8002785 	stb	zero,158(sp)
   41a64:	e011883a 	mov	r8,fp
   41a68:	10c00104 	addi	r3,r2,4
   41a6c:	15000017 	ldw	r20,0(r2)
   41a70:	002d883a 	mov	r22,zero
   41a74:	80800094 	ori	r2,r16,2
   41a78:	2002b616 	blt	r4,zero,42554 <___svfprintf_internal_r+0xe04>
   41a7c:	00bfdfc4 	movi	r2,-129
   41a80:	80a4703a 	and	r18,r16,r2
   41a84:	d8c02e15 	stw	r3,184(sp)
   41a88:	94800094 	ori	r18,r18,2
   41a8c:	a002a01e 	bne	r20,zero,42510 <___svfprintf_internal_r+0xdc0>
   41a90:	01400174 	movhi	r5,5
   41a94:	295a2804 	addi	r5,r5,26784
   41a98:	d9403a15 	stw	r5,232(sp)
   41a9c:	04401e04 	movi	r17,120
   41aa0:	d8c02a17 	ldw	r3,168(sp)
   41aa4:	0039883a 	mov	fp,zero
   41aa8:	1801e626 	beq	r3,zero,42244 <___svfprintf_internal_r+0xaf4>
   41aac:	0029883a 	mov	r20,zero
   41ab0:	002d883a 	mov	r22,zero
   41ab4:	00020506 	br	422cc <___svfprintf_internal_r+0xb7c>
   41ab8:	d9402d17 	ldw	r5,180(sp)
   41abc:	d9801e04 	addi	r6,sp,120
   41ac0:	9809883a 	mov	r4,r19
   41ac4:	004b2580 	call	4b258 <__ssprint_r>
   41ac8:	1000081e 	bne	r2,zero,41aec <___svfprintf_internal_r+0x39c>
   41acc:	da000404 	addi	r8,sp,16
   41ad0:	003f6106 	br	41858 <__alt_data_end+0xfffcf858>
   41ad4:	d8802017 	ldw	r2,128(sp)
   41ad8:	10000426 	beq	r2,zero,41aec <___svfprintf_internal_r+0x39c>
   41adc:	d9402d17 	ldw	r5,180(sp)
   41ae0:	d9003917 	ldw	r4,228(sp)
   41ae4:	d9801e04 	addi	r6,sp,120
   41ae8:	004b2580 	call	4b258 <__ssprint_r>
   41aec:	d8802d17 	ldw	r2,180(sp)
   41af0:	10c0030b 	ldhu	r3,12(r2)
   41af4:	d8802f17 	ldw	r2,188(sp)
   41af8:	18c0100c 	andi	r3,r3,64
   41afc:	1806251e 	bne	r3,zero,43394 <___svfprintf_internal_r+0x1c44>
   41b00:	dfc04817 	ldw	ra,288(sp)
   41b04:	df004717 	ldw	fp,284(sp)
   41b08:	ddc04617 	ldw	r23,280(sp)
   41b0c:	dd804517 	ldw	r22,276(sp)
   41b10:	dd404417 	ldw	r21,272(sp)
   41b14:	dd004317 	ldw	r20,268(sp)
   41b18:	dcc04217 	ldw	r19,264(sp)
   41b1c:	dc804117 	ldw	r18,260(sp)
   41b20:	dc404017 	ldw	r17,256(sp)
   41b24:	dc003f17 	ldw	r16,252(sp)
   41b28:	dec04904 	addi	sp,sp,292
   41b2c:	f800283a 	ret
   41b30:	d9002e17 	ldw	r4,184(sp)
   41b34:	d9402e17 	ldw	r5,184(sp)
   41b38:	21000017 	ldw	r4,0(r4)
   41b3c:	28800104 	addi	r2,r5,4
   41b40:	d9003115 	stw	r4,196(sp)
   41b44:	203fb916 	blt	r4,zero,41a2c <__alt_data_end+0xfffcfa2c>
   41b48:	d8802e15 	stw	r2,184(sp)
   41b4c:	bc400007 	ldb	r17,0(r23)
   41b50:	003f5406 	br	418a4 <__alt_data_end+0xfffcf8a4>
   41b54:	bc400007 	ldb	r17,0(r23)
   41b58:	01000a84 	movi	r4,42
   41b5c:	b8c00044 	addi	r3,r23,1
   41b60:	89076926 	beq	r17,r4,43908 <___svfprintf_internal_r+0x21b8>
   41b64:	8cbff404 	addi	r18,r17,-48
   41b68:	b486b936 	bltu	r22,r18,43650 <___svfprintf_internal_r+0x1f00>
   41b6c:	0009883a 	mov	r4,zero
   41b70:	1823883a 	mov	r17,r3
   41b74:	01400284 	movi	r5,10
   41b78:	004146c0 	call	4146c <__mulsi3>
   41b7c:	88c00007 	ldb	r3,0(r17)
   41b80:	1489883a 	add	r4,r2,r18
   41b84:	8dc00044 	addi	r23,r17,1
   41b88:	1cbff404 	addi	r18,r3,-48
   41b8c:	b823883a 	mov	r17,r23
   41b90:	b4bff82e 	bgeu	r22,r18,41b74 <__alt_data_end+0xfffcfb74>
   41b94:	1823883a 	mov	r17,r3
   41b98:	20060416 	blt	r4,zero,433ac <___svfprintf_internal_r+0x1c5c>
   41b9c:	d9002a15 	stw	r4,168(sp)
   41ba0:	003f4106 	br	418a8 <__alt_data_end+0xfffcf8a8>
   41ba4:	8cbff404 	addi	r18,r17,-48
   41ba8:	d8003115 	stw	zero,196(sp)
   41bac:	0009883a 	mov	r4,zero
   41bb0:	b823883a 	mov	r17,r23
   41bb4:	01400284 	movi	r5,10
   41bb8:	004146c0 	call	4146c <__mulsi3>
   41bbc:	88c00007 	ldb	r3,0(r17)
   41bc0:	9089883a 	add	r4,r18,r2
   41bc4:	bdc00044 	addi	r23,r23,1
   41bc8:	1cbff404 	addi	r18,r3,-48
   41bcc:	b823883a 	mov	r17,r23
   41bd0:	b4bff82e 	bgeu	r22,r18,41bb4 <__alt_data_end+0xfffcfbb4>
   41bd4:	1823883a 	mov	r17,r3
   41bd8:	d9003115 	stw	r4,196(sp)
   41bdc:	003f3206 	br	418a8 <__alt_data_end+0xfffcf8a8>
   41be0:	84002014 	ori	r16,r16,128
   41be4:	bc400007 	ldb	r17,0(r23)
   41be8:	003f2e06 	br	418a4 <__alt_data_end+0xfffcf8a4>
   41bec:	8025883a 	mov	r18,r16
   41bf0:	dc002903 	ldbu	r16,164(sp)
   41bf4:	e011883a 	mov	r8,fp
   41bf8:	84003fcc 	andi	r16,r16,255
   41bfc:	8007721e 	bne	r16,zero,439c8 <___svfprintf_internal_r+0x2278>
   41c00:	9080020c 	andi	r2,r18,8
   41c04:	1004a526 	beq	r2,zero,42e9c <___svfprintf_internal_r+0x174c>
   41c08:	d9002e17 	ldw	r4,184(sp)
   41c0c:	d9402e17 	ldw	r5,184(sp)
   41c10:	d8802e17 	ldw	r2,184(sp)
   41c14:	21000017 	ldw	r4,0(r4)
   41c18:	29400117 	ldw	r5,4(r5)
   41c1c:	10800204 	addi	r2,r2,8
   41c20:	d9003615 	stw	r4,216(sp)
   41c24:	d9403715 	stw	r5,220(sp)
   41c28:	d8802e15 	stw	r2,184(sp)
   41c2c:	d9003617 	ldw	r4,216(sp)
   41c30:	d9403717 	ldw	r5,220(sp)
   41c34:	da003e15 	stw	r8,248(sp)
   41c38:	04000044 	movi	r16,1
   41c3c:	004af780 	call	4af78 <__fpclassifyd>
   41c40:	da003e17 	ldw	r8,248(sp)
   41c44:	1404731e 	bne	r2,r16,42e14 <___svfprintf_internal_r+0x16c4>
   41c48:	d9003617 	ldw	r4,216(sp)
   41c4c:	d9403717 	ldw	r5,220(sp)
   41c50:	000d883a 	mov	r6,zero
   41c54:	000f883a 	mov	r7,zero
   41c58:	00507ac0 	call	507ac <__ledf2>
   41c5c:	da003e17 	ldw	r8,248(sp)
   41c60:	10061b16 	blt	r2,zero,434d0 <___svfprintf_internal_r+0x1d80>
   41c64:	df002783 	ldbu	fp,158(sp)
   41c68:	008011c4 	movi	r2,71
   41c6c:	1445810e 	bge	r2,r17,43274 <___svfprintf_internal_r+0x1b24>
   41c70:	04000174 	movhi	r16,5
   41c74:	841a2004 	addi	r16,r16,26752
   41c78:	00c000c4 	movi	r3,3
   41c7c:	00bfdfc4 	movi	r2,-129
   41c80:	d8c02915 	stw	r3,164(sp)
   41c84:	90a4703a 	and	r18,r18,r2
   41c88:	d8c02b15 	stw	r3,172(sp)
   41c8c:	d8002a15 	stw	zero,168(sp)
   41c90:	d8003215 	stw	zero,200(sp)
   41c94:	00006c06 	br	41e48 <___svfprintf_internal_r+0x6f8>
   41c98:	84000214 	ori	r16,r16,8
   41c9c:	bc400007 	ldb	r17,0(r23)
   41ca0:	003f0006 	br	418a4 <__alt_data_end+0xfffcf8a4>
   41ca4:	8025883a 	mov	r18,r16
   41ca8:	dc002903 	ldbu	r16,164(sp)
   41cac:	e011883a 	mov	r8,fp
   41cb0:	84003fcc 	andi	r16,r16,255
   41cb4:	80073f1e 	bne	r16,zero,439b4 <___svfprintf_internal_r+0x2264>
   41cb8:	94800414 	ori	r18,r18,16
   41cbc:	9080080c 	andi	r2,r18,32
   41cc0:	1003bb26 	beq	r2,zero,42bb0 <___svfprintf_internal_r+0x1460>
   41cc4:	d9002e17 	ldw	r4,184(sp)
   41cc8:	20800117 	ldw	r2,4(r4)
   41ccc:	25000017 	ldw	r20,0(r4)
   41cd0:	21000204 	addi	r4,r4,8
   41cd4:	d9002e15 	stw	r4,184(sp)
   41cd8:	102d883a 	mov	r22,r2
   41cdc:	1003bd16 	blt	r2,zero,42bd4 <___svfprintf_internal_r+0x1484>
   41ce0:	d9002a17 	ldw	r4,168(sp)
   41ce4:	df002783 	ldbu	fp,158(sp)
   41ce8:	2003d016 	blt	r4,zero,42c2c <___svfprintf_internal_r+0x14dc>
   41cec:	00ffdfc4 	movi	r3,-129
   41cf0:	a584b03a 	or	r2,r20,r22
   41cf4:	90e4703a 	and	r18,r18,r3
   41cf8:	10015026 	beq	r2,zero,4223c <___svfprintf_internal_r+0xaec>
   41cfc:	b0037026 	beq	r22,zero,42ac0 <___svfprintf_internal_r+0x1370>
   41d00:	dc402915 	stw	r17,164(sp)
   41d04:	dc001e04 	addi	r16,sp,120
   41d08:	b023883a 	mov	r17,r22
   41d0c:	402d883a 	mov	r22,r8
   41d10:	a009883a 	mov	r4,r20
   41d14:	880b883a 	mov	r5,r17
   41d18:	01800284 	movi	r6,10
   41d1c:	000f883a 	mov	r7,zero
   41d20:	004ee080 	call	4ee08 <__umoddi3>
   41d24:	10800c04 	addi	r2,r2,48
   41d28:	843fffc4 	addi	r16,r16,-1
   41d2c:	a009883a 	mov	r4,r20
   41d30:	880b883a 	mov	r5,r17
   41d34:	80800005 	stb	r2,0(r16)
   41d38:	01800284 	movi	r6,10
   41d3c:	000f883a 	mov	r7,zero
   41d40:	004e80c0 	call	4e80c <__udivdi3>
   41d44:	1029883a 	mov	r20,r2
   41d48:	10c4b03a 	or	r2,r2,r3
   41d4c:	1823883a 	mov	r17,r3
   41d50:	103fef1e 	bne	r2,zero,41d10 <__alt_data_end+0xfffcfd10>
   41d54:	d8c02817 	ldw	r3,160(sp)
   41d58:	dc402917 	ldw	r17,164(sp)
   41d5c:	b011883a 	mov	r8,r22
   41d60:	1c07c83a 	sub	r3,r3,r16
   41d64:	d8c02b15 	stw	r3,172(sp)
   41d68:	00003106 	br	41e30 <___svfprintf_internal_r+0x6e0>
   41d6c:	8025883a 	mov	r18,r16
   41d70:	dc002903 	ldbu	r16,164(sp)
   41d74:	e011883a 	mov	r8,fp
   41d78:	84003fcc 	andi	r16,r16,255
   41d7c:	80070a1e 	bne	r16,zero,439a8 <___svfprintf_internal_r+0x2258>
   41d80:	94800414 	ori	r18,r18,16
   41d84:	9080080c 	andi	r2,r18,32
   41d88:	1002f626 	beq	r2,zero,42964 <___svfprintf_internal_r+0x1214>
   41d8c:	d9002e17 	ldw	r4,184(sp)
   41d90:	d9402a17 	ldw	r5,168(sp)
   41d94:	d8002785 	stb	zero,158(sp)
   41d98:	20800204 	addi	r2,r4,8
   41d9c:	25000017 	ldw	r20,0(r4)
   41da0:	25800117 	ldw	r22,4(r4)
   41da4:	28043716 	blt	r5,zero,42e84 <___svfprintf_internal_r+0x1734>
   41da8:	013fdfc4 	movi	r4,-129
   41dac:	a586b03a 	or	r3,r20,r22
   41db0:	d8802e15 	stw	r2,184(sp)
   41db4:	9124703a 	and	r18,r18,r4
   41db8:	1802f71e 	bne	r3,zero,42998 <___svfprintf_internal_r+0x1248>
   41dbc:	d9402a17 	ldw	r5,168(sp)
   41dc0:	0039883a 	mov	fp,zero
   41dc4:	2806df26 	beq	r5,zero,43944 <___svfprintf_internal_r+0x21f4>
   41dc8:	0029883a 	mov	r20,zero
   41dcc:	002d883a 	mov	r22,zero
   41dd0:	dc001e04 	addi	r16,sp,120
   41dd4:	a006d0fa 	srli	r3,r20,3
   41dd8:	b008977a 	slli	r4,r22,29
   41ddc:	b02cd0fa 	srli	r22,r22,3
   41de0:	a50001cc 	andi	r20,r20,7
   41de4:	a0800c04 	addi	r2,r20,48
   41de8:	843fffc4 	addi	r16,r16,-1
   41dec:	20e8b03a 	or	r20,r4,r3
   41df0:	80800005 	stb	r2,0(r16)
   41df4:	a586b03a 	or	r3,r20,r22
   41df8:	183ff61e 	bne	r3,zero,41dd4 <__alt_data_end+0xfffcfdd4>
   41dfc:	90c0004c 	andi	r3,r18,1
   41e00:	18013f26 	beq	r3,zero,42300 <___svfprintf_internal_r+0xbb0>
   41e04:	10803fcc 	andi	r2,r2,255
   41e08:	1080201c 	xori	r2,r2,128
   41e0c:	10bfe004 	addi	r2,r2,-128
   41e10:	00c00c04 	movi	r3,48
   41e14:	10c13a26 	beq	r2,r3,42300 <___svfprintf_internal_r+0xbb0>
   41e18:	80ffffc5 	stb	r3,-1(r16)
   41e1c:	d8c02817 	ldw	r3,160(sp)
   41e20:	80bfffc4 	addi	r2,r16,-1
   41e24:	1021883a 	mov	r16,r2
   41e28:	1887c83a 	sub	r3,r3,r2
   41e2c:	d8c02b15 	stw	r3,172(sp)
   41e30:	d8802b17 	ldw	r2,172(sp)
   41e34:	d9002a17 	ldw	r4,168(sp)
   41e38:	1100010e 	bge	r2,r4,41e40 <___svfprintf_internal_r+0x6f0>
   41e3c:	2005883a 	mov	r2,r4
   41e40:	d8802915 	stw	r2,164(sp)
   41e44:	d8003215 	stw	zero,200(sp)
   41e48:	e7003fcc 	andi	fp,fp,255
   41e4c:	e700201c 	xori	fp,fp,128
   41e50:	e73fe004 	addi	fp,fp,-128
   41e54:	e0000326 	beq	fp,zero,41e64 <___svfprintf_internal_r+0x714>
   41e58:	d8c02917 	ldw	r3,164(sp)
   41e5c:	18c00044 	addi	r3,r3,1
   41e60:	d8c02915 	stw	r3,164(sp)
   41e64:	90c0008c 	andi	r3,r18,2
   41e68:	d8c02c15 	stw	r3,176(sp)
   41e6c:	18000326 	beq	r3,zero,41e7c <___svfprintf_internal_r+0x72c>
   41e70:	d8c02917 	ldw	r3,164(sp)
   41e74:	18c00084 	addi	r3,r3,2
   41e78:	d8c02915 	stw	r3,164(sp)
   41e7c:	90c0210c 	andi	r3,r18,132
   41e80:	d8c03015 	stw	r3,192(sp)
   41e84:	1801c31e 	bne	r3,zero,42594 <___svfprintf_internal_r+0xe44>
   41e88:	d9003117 	ldw	r4,196(sp)
   41e8c:	d8c02917 	ldw	r3,164(sp)
   41e90:	20e9c83a 	sub	r20,r4,r3
   41e94:	0501bf0e 	bge	zero,r20,42594 <___svfprintf_internal_r+0xe44>
   41e98:	02400404 	movi	r9,16
   41e9c:	d8c02017 	ldw	r3,128(sp)
   41ea0:	d8801f17 	ldw	r2,124(sp)
   41ea4:	4d053d0e 	bge	r9,r20,4339c <___svfprintf_internal_r+0x1c4c>
   41ea8:	01400174 	movhi	r5,5
   41eac:	295a3384 	addi	r5,r5,26830
   41eb0:	dc403c15 	stw	r17,240(sp)
   41eb4:	d9403515 	stw	r5,212(sp)
   41eb8:	a023883a 	mov	r17,r20
   41ebc:	482d883a 	mov	r22,r9
   41ec0:	9029883a 	mov	r20,r18
   41ec4:	070001c4 	movi	fp,7
   41ec8:	8025883a 	mov	r18,r16
   41ecc:	dc002d17 	ldw	r16,180(sp)
   41ed0:	00000306 	br	41ee0 <___svfprintf_internal_r+0x790>
   41ed4:	8c7ffc04 	addi	r17,r17,-16
   41ed8:	42000204 	addi	r8,r8,8
   41edc:	b440130e 	bge	r22,r17,41f2c <___svfprintf_internal_r+0x7dc>
   41ee0:	01000174 	movhi	r4,5
   41ee4:	18c00404 	addi	r3,r3,16
   41ee8:	10800044 	addi	r2,r2,1
   41eec:	211a3384 	addi	r4,r4,26830
   41ef0:	41000015 	stw	r4,0(r8)
   41ef4:	45800115 	stw	r22,4(r8)
   41ef8:	d8c02015 	stw	r3,128(sp)
   41efc:	d8801f15 	stw	r2,124(sp)
   41f00:	e0bff40e 	bge	fp,r2,41ed4 <__alt_data_end+0xfffcfed4>
   41f04:	d9801e04 	addi	r6,sp,120
   41f08:	800b883a 	mov	r5,r16
   41f0c:	9809883a 	mov	r4,r19
   41f10:	004b2580 	call	4b258 <__ssprint_r>
   41f14:	103ef51e 	bne	r2,zero,41aec <__alt_data_end+0xfffcfaec>
   41f18:	8c7ffc04 	addi	r17,r17,-16
   41f1c:	d8c02017 	ldw	r3,128(sp)
   41f20:	d8801f17 	ldw	r2,124(sp)
   41f24:	da000404 	addi	r8,sp,16
   41f28:	b47fed16 	blt	r22,r17,41ee0 <__alt_data_end+0xfffcfee0>
   41f2c:	9021883a 	mov	r16,r18
   41f30:	a025883a 	mov	r18,r20
   41f34:	8829883a 	mov	r20,r17
   41f38:	dc403c17 	ldw	r17,240(sp)
   41f3c:	d9403517 	ldw	r5,212(sp)
   41f40:	a0c7883a 	add	r3,r20,r3
   41f44:	10800044 	addi	r2,r2,1
   41f48:	41400015 	stw	r5,0(r8)
   41f4c:	45000115 	stw	r20,4(r8)
   41f50:	d8c02015 	stw	r3,128(sp)
   41f54:	d8801f15 	stw	r2,124(sp)
   41f58:	010001c4 	movi	r4,7
   41f5c:	2082c116 	blt	r4,r2,42a64 <___svfprintf_internal_r+0x1314>
   41f60:	df002787 	ldb	fp,158(sp)
   41f64:	42000204 	addi	r8,r8,8
   41f68:	e0000c26 	beq	fp,zero,41f9c <___svfprintf_internal_r+0x84c>
   41f6c:	d8801f17 	ldw	r2,124(sp)
   41f70:	d9002784 	addi	r4,sp,158
   41f74:	18c00044 	addi	r3,r3,1
   41f78:	10800044 	addi	r2,r2,1
   41f7c:	41000015 	stw	r4,0(r8)
   41f80:	01000044 	movi	r4,1
   41f84:	41000115 	stw	r4,4(r8)
   41f88:	d8c02015 	stw	r3,128(sp)
   41f8c:	d8801f15 	stw	r2,124(sp)
   41f90:	010001c4 	movi	r4,7
   41f94:	20825a16 	blt	r4,r2,42900 <___svfprintf_internal_r+0x11b0>
   41f98:	42000204 	addi	r8,r8,8
   41f9c:	d8802c17 	ldw	r2,176(sp)
   41fa0:	10000c26 	beq	r2,zero,41fd4 <___svfprintf_internal_r+0x884>
   41fa4:	d8801f17 	ldw	r2,124(sp)
   41fa8:	d9002704 	addi	r4,sp,156
   41fac:	18c00084 	addi	r3,r3,2
   41fb0:	10800044 	addi	r2,r2,1
   41fb4:	41000015 	stw	r4,0(r8)
   41fb8:	01000084 	movi	r4,2
   41fbc:	41000115 	stw	r4,4(r8)
   41fc0:	d8c02015 	stw	r3,128(sp)
   41fc4:	d8801f15 	stw	r2,124(sp)
   41fc8:	010001c4 	movi	r4,7
   41fcc:	20825416 	blt	r4,r2,42920 <___svfprintf_internal_r+0x11d0>
   41fd0:	42000204 	addi	r8,r8,8
   41fd4:	d9003017 	ldw	r4,192(sp)
   41fd8:	00802004 	movi	r2,128
   41fdc:	2081b926 	beq	r4,r2,426c4 <___svfprintf_internal_r+0xf74>
   41fe0:	d9402a17 	ldw	r5,168(sp)
   41fe4:	d8802b17 	ldw	r2,172(sp)
   41fe8:	28adc83a 	sub	r22,r5,r2
   41fec:	05802f0e 	bge	zero,r22,420ac <___svfprintf_internal_r+0x95c>
   41ff0:	07000404 	movi	fp,16
   41ff4:	d8801f17 	ldw	r2,124(sp)
   41ff8:	e583e20e 	bge	fp,r22,42f84 <___svfprintf_internal_r+0x1834>
   41ffc:	01400174 	movhi	r5,5
   42000:	295a2f84 	addi	r5,r5,26814
   42004:	dc402a15 	stw	r17,168(sp)
   42008:	d9402c15 	stw	r5,176(sp)
   4200c:	b023883a 	mov	r17,r22
   42010:	050001c4 	movi	r20,7
   42014:	902d883a 	mov	r22,r18
   42018:	8025883a 	mov	r18,r16
   4201c:	dc002d17 	ldw	r16,180(sp)
   42020:	00000306 	br	42030 <___svfprintf_internal_r+0x8e0>
   42024:	8c7ffc04 	addi	r17,r17,-16
   42028:	42000204 	addi	r8,r8,8
   4202c:	e440110e 	bge	fp,r17,42074 <___svfprintf_internal_r+0x924>
   42030:	18c00404 	addi	r3,r3,16
   42034:	10800044 	addi	r2,r2,1
   42038:	45400015 	stw	r21,0(r8)
   4203c:	47000115 	stw	fp,4(r8)
   42040:	d8c02015 	stw	r3,128(sp)
   42044:	d8801f15 	stw	r2,124(sp)
   42048:	a0bff60e 	bge	r20,r2,42024 <__alt_data_end+0xfffd0024>
   4204c:	d9801e04 	addi	r6,sp,120
   42050:	800b883a 	mov	r5,r16
   42054:	9809883a 	mov	r4,r19
   42058:	004b2580 	call	4b258 <__ssprint_r>
   4205c:	103ea31e 	bne	r2,zero,41aec <__alt_data_end+0xfffcfaec>
   42060:	8c7ffc04 	addi	r17,r17,-16
   42064:	d8c02017 	ldw	r3,128(sp)
   42068:	d8801f17 	ldw	r2,124(sp)
   4206c:	da000404 	addi	r8,sp,16
   42070:	e47fef16 	blt	fp,r17,42030 <__alt_data_end+0xfffd0030>
   42074:	9021883a 	mov	r16,r18
   42078:	b025883a 	mov	r18,r22
   4207c:	882d883a 	mov	r22,r17
   42080:	dc402a17 	ldw	r17,168(sp)
   42084:	d9002c17 	ldw	r4,176(sp)
   42088:	1d87883a 	add	r3,r3,r22
   4208c:	10800044 	addi	r2,r2,1
   42090:	41000015 	stw	r4,0(r8)
   42094:	45800115 	stw	r22,4(r8)
   42098:	d8c02015 	stw	r3,128(sp)
   4209c:	d8801f15 	stw	r2,124(sp)
   420a0:	010001c4 	movi	r4,7
   420a4:	20820e16 	blt	r4,r2,428e0 <___svfprintf_internal_r+0x1190>
   420a8:	42000204 	addi	r8,r8,8
   420ac:	9080400c 	andi	r2,r18,256
   420b0:	10013a1e 	bne	r2,zero,4259c <___svfprintf_internal_r+0xe4c>
   420b4:	d9402b17 	ldw	r5,172(sp)
   420b8:	d8801f17 	ldw	r2,124(sp)
   420bc:	44000015 	stw	r16,0(r8)
   420c0:	1947883a 	add	r3,r3,r5
   420c4:	10800044 	addi	r2,r2,1
   420c8:	41400115 	stw	r5,4(r8)
   420cc:	d8c02015 	stw	r3,128(sp)
   420d0:	d8801f15 	stw	r2,124(sp)
   420d4:	010001c4 	movi	r4,7
   420d8:	2081f316 	blt	r4,r2,428a8 <___svfprintf_internal_r+0x1158>
   420dc:	42000204 	addi	r8,r8,8
   420e0:	9480010c 	andi	r18,r18,4
   420e4:	90003226 	beq	r18,zero,421b0 <___svfprintf_internal_r+0xa60>
   420e8:	d9403117 	ldw	r5,196(sp)
   420ec:	d8802917 	ldw	r2,164(sp)
   420f0:	28a1c83a 	sub	r16,r5,r2
   420f4:	04002e0e 	bge	zero,r16,421b0 <___svfprintf_internal_r+0xa60>
   420f8:	04400404 	movi	r17,16
   420fc:	d8801f17 	ldw	r2,124(sp)
   42100:	8c04db0e 	bge	r17,r16,43470 <___svfprintf_internal_r+0x1d20>
   42104:	01400174 	movhi	r5,5
   42108:	295a3384 	addi	r5,r5,26830
   4210c:	d9403515 	stw	r5,212(sp)
   42110:	048001c4 	movi	r18,7
   42114:	dd002d17 	ldw	r20,180(sp)
   42118:	00000306 	br	42128 <___svfprintf_internal_r+0x9d8>
   4211c:	843ffc04 	addi	r16,r16,-16
   42120:	42000204 	addi	r8,r8,8
   42124:	8c00130e 	bge	r17,r16,42174 <___svfprintf_internal_r+0xa24>
   42128:	01000174 	movhi	r4,5
   4212c:	18c00404 	addi	r3,r3,16
   42130:	10800044 	addi	r2,r2,1
   42134:	211a3384 	addi	r4,r4,26830
   42138:	41000015 	stw	r4,0(r8)
   4213c:	44400115 	stw	r17,4(r8)
   42140:	d8c02015 	stw	r3,128(sp)
   42144:	d8801f15 	stw	r2,124(sp)
   42148:	90bff40e 	bge	r18,r2,4211c <__alt_data_end+0xfffd011c>
   4214c:	d9801e04 	addi	r6,sp,120
   42150:	a00b883a 	mov	r5,r20
   42154:	9809883a 	mov	r4,r19
   42158:	004b2580 	call	4b258 <__ssprint_r>
   4215c:	103e631e 	bne	r2,zero,41aec <__alt_data_end+0xfffcfaec>
   42160:	843ffc04 	addi	r16,r16,-16
   42164:	d8c02017 	ldw	r3,128(sp)
   42168:	d8801f17 	ldw	r2,124(sp)
   4216c:	da000404 	addi	r8,sp,16
   42170:	8c3fed16 	blt	r17,r16,42128 <__alt_data_end+0xfffd0128>
   42174:	d9403517 	ldw	r5,212(sp)
   42178:	1c07883a 	add	r3,r3,r16
   4217c:	10800044 	addi	r2,r2,1
   42180:	41400015 	stw	r5,0(r8)
   42184:	44000115 	stw	r16,4(r8)
   42188:	d8c02015 	stw	r3,128(sp)
   4218c:	d8801f15 	stw	r2,124(sp)
   42190:	010001c4 	movi	r4,7
   42194:	2080060e 	bge	r4,r2,421b0 <___svfprintf_internal_r+0xa60>
   42198:	d9402d17 	ldw	r5,180(sp)
   4219c:	d9801e04 	addi	r6,sp,120
   421a0:	9809883a 	mov	r4,r19
   421a4:	004b2580 	call	4b258 <__ssprint_r>
   421a8:	103e501e 	bne	r2,zero,41aec <__alt_data_end+0xfffcfaec>
   421ac:	d8c02017 	ldw	r3,128(sp)
   421b0:	d8803117 	ldw	r2,196(sp)
   421b4:	d9002917 	ldw	r4,164(sp)
   421b8:	1100010e 	bge	r2,r4,421c0 <___svfprintf_internal_r+0xa70>
   421bc:	2005883a 	mov	r2,r4
   421c0:	d9402f17 	ldw	r5,188(sp)
   421c4:	288b883a 	add	r5,r5,r2
   421c8:	d9402f15 	stw	r5,188(sp)
   421cc:	1801be1e 	bne	r3,zero,428c8 <___svfprintf_internal_r+0x1178>
   421d0:	b8800007 	ldb	r2,0(r23)
   421d4:	d8001f15 	stw	zero,124(sp)
   421d8:	da000404 	addi	r8,sp,16
   421dc:	103d891e 	bne	r2,zero,41804 <__alt_data_end+0xfffcf804>
   421e0:	b823883a 	mov	r17,r23
   421e4:	003d9f06 	br	41864 <__alt_data_end+0xfffcf864>
   421e8:	8025883a 	mov	r18,r16
   421ec:	dc002903 	ldbu	r16,164(sp)
   421f0:	e011883a 	mov	r8,fp
   421f4:	84003fcc 	andi	r16,r16,255
   421f8:	8005e61e 	bne	r16,zero,43994 <___svfprintf_internal_r+0x2244>
   421fc:	94800414 	ori	r18,r18,16
   42200:	9080080c 	andi	r2,r18,32
   42204:	10022026 	beq	r2,zero,42a88 <___svfprintf_internal_r+0x1338>
   42208:	d9002e17 	ldw	r4,184(sp)
   4220c:	d9402a17 	ldw	r5,168(sp)
   42210:	d8002785 	stb	zero,158(sp)
   42214:	20c00204 	addi	r3,r4,8
   42218:	25000017 	ldw	r20,0(r4)
   4221c:	25800117 	ldw	r22,4(r4)
   42220:	2803ad16 	blt	r5,zero,430d8 <___svfprintf_internal_r+0x1988>
   42224:	013fdfc4 	movi	r4,-129
   42228:	a584b03a 	or	r2,r20,r22
   4222c:	d8c02e15 	stw	r3,184(sp)
   42230:	9124703a 	and	r18,r18,r4
   42234:	0039883a 	mov	fp,zero
   42238:	103eb01e 	bne	r2,zero,41cfc <__alt_data_end+0xfffcfcfc>
   4223c:	d8802a17 	ldw	r2,168(sp)
   42240:	1002e71e 	bne	r2,zero,42de0 <___svfprintf_internal_r+0x1690>
   42244:	d8002a15 	stw	zero,168(sp)
   42248:	d8002b15 	stw	zero,172(sp)
   4224c:	dc001e04 	addi	r16,sp,120
   42250:	003ef706 	br	41e30 <__alt_data_end+0xfffcfe30>
   42254:	8025883a 	mov	r18,r16
   42258:	dc002903 	ldbu	r16,164(sp)
   4225c:	e011883a 	mov	r8,fp
   42260:	84003fcc 	andi	r16,r16,255
   42264:	8005c81e 	bne	r16,zero,43988 <___svfprintf_internal_r+0x2238>
   42268:	01000174 	movhi	r4,5
   4226c:	211a2304 	addi	r4,r4,26764
   42270:	d9003a15 	stw	r4,232(sp)
   42274:	9080080c 	andi	r2,r18,32
   42278:	10007226 	beq	r2,zero,42444 <___svfprintf_internal_r+0xcf4>
   4227c:	d9402e17 	ldw	r5,184(sp)
   42280:	2d000017 	ldw	r20,0(r5)
   42284:	2d800117 	ldw	r22,4(r5)
   42288:	29400204 	addi	r5,r5,8
   4228c:	d9402e15 	stw	r5,184(sp)
   42290:	9080004c 	andi	r2,r18,1
   42294:	1001aa26 	beq	r2,zero,42940 <___svfprintf_internal_r+0x11f0>
   42298:	a584b03a 	or	r2,r20,r22
   4229c:	10032526 	beq	r2,zero,42f34 <___svfprintf_internal_r+0x17e4>
   422a0:	d8c02a17 	ldw	r3,168(sp)
   422a4:	00800c04 	movi	r2,48
   422a8:	d8802705 	stb	r2,156(sp)
   422ac:	dc402745 	stb	r17,157(sp)
   422b0:	d8002785 	stb	zero,158(sp)
   422b4:	90800094 	ori	r2,r18,2
   422b8:	1804a316 	blt	r3,zero,43548 <___svfprintf_internal_r+0x1df8>
   422bc:	00bfdfc4 	movi	r2,-129
   422c0:	90a4703a 	and	r18,r18,r2
   422c4:	94800094 	ori	r18,r18,2
   422c8:	0039883a 	mov	fp,zero
   422cc:	d9003a17 	ldw	r4,232(sp)
   422d0:	dc001e04 	addi	r16,sp,120
   422d4:	a08003cc 	andi	r2,r20,15
   422d8:	b006973a 	slli	r3,r22,28
   422dc:	2085883a 	add	r2,r4,r2
   422e0:	a028d13a 	srli	r20,r20,4
   422e4:	10800003 	ldbu	r2,0(r2)
   422e8:	b02cd13a 	srli	r22,r22,4
   422ec:	843fffc4 	addi	r16,r16,-1
   422f0:	1d28b03a 	or	r20,r3,r20
   422f4:	80800005 	stb	r2,0(r16)
   422f8:	a584b03a 	or	r2,r20,r22
   422fc:	103ff51e 	bne	r2,zero,422d4 <__alt_data_end+0xfffd02d4>
   42300:	d8c02817 	ldw	r3,160(sp)
   42304:	1c07c83a 	sub	r3,r3,r16
   42308:	d8c02b15 	stw	r3,172(sp)
   4230c:	003ec806 	br	41e30 <__alt_data_end+0xfffcfe30>
   42310:	d8c02e17 	ldw	r3,184(sp)
   42314:	d9002e17 	ldw	r4,184(sp)
   42318:	8025883a 	mov	r18,r16
   4231c:	18800017 	ldw	r2,0(r3)
   42320:	21000104 	addi	r4,r4,4
   42324:	00c00044 	movi	r3,1
   42328:	e011883a 	mov	r8,fp
   4232c:	d8c02915 	stw	r3,164(sp)
   42330:	d8002785 	stb	zero,158(sp)
   42334:	d8801405 	stb	r2,80(sp)
   42338:	d9002e15 	stw	r4,184(sp)
   4233c:	d8c02b15 	stw	r3,172(sp)
   42340:	d8002a15 	stw	zero,168(sp)
   42344:	d8003215 	stw	zero,200(sp)
   42348:	dc001404 	addi	r16,sp,80
   4234c:	0039883a 	mov	fp,zero
   42350:	003ec406 	br	41e64 <__alt_data_end+0xfffcfe64>
   42354:	8025883a 	mov	r18,r16
   42358:	dc002903 	ldbu	r16,164(sp)
   4235c:	e011883a 	mov	r8,fp
   42360:	84003fcc 	andi	r16,r16,255
   42364:	803e8726 	beq	r16,zero,41d84 <__alt_data_end+0xfffcfd84>
   42368:	d8c02b03 	ldbu	r3,172(sp)
   4236c:	d8c02785 	stb	r3,158(sp)
   42370:	003e8406 	br	41d84 <__alt_data_end+0xfffcfd84>
   42374:	00c00044 	movi	r3,1
   42378:	d8c02905 	stb	r3,164(sp)
   4237c:	00c00ac4 	movi	r3,43
   42380:	d8c02b05 	stb	r3,172(sp)
   42384:	bc400007 	ldb	r17,0(r23)
   42388:	003d4606 	br	418a4 <__alt_data_end+0xfffcf8a4>
   4238c:	84000814 	ori	r16,r16,32
   42390:	bc400007 	ldb	r17,0(r23)
   42394:	003d4306 	br	418a4 <__alt_data_end+0xfffcf8a4>
   42398:	d8802e17 	ldw	r2,184(sp)
   4239c:	8025883a 	mov	r18,r16
   423a0:	d8002785 	stb	zero,158(sp)
   423a4:	14000017 	ldw	r16,0(r2)
   423a8:	e011883a 	mov	r8,fp
   423ac:	15000104 	addi	r20,r2,4
   423b0:	80042126 	beq	r16,zero,43438 <___svfprintf_internal_r+0x1ce8>
   423b4:	d8c02a17 	ldw	r3,168(sp)
   423b8:	1803ee16 	blt	r3,zero,43374 <___svfprintf_internal_r+0x1c24>
   423bc:	180d883a 	mov	r6,r3
   423c0:	000b883a 	mov	r5,zero
   423c4:	8009883a 	mov	r4,r16
   423c8:	df003e15 	stw	fp,248(sp)
   423cc:	00493440 	call	49344 <memchr>
   423d0:	da003e17 	ldw	r8,248(sp)
   423d4:	10046a26 	beq	r2,zero,43580 <___svfprintf_internal_r+0x1e30>
   423d8:	1405c83a 	sub	r2,r2,r16
   423dc:	d8802b15 	stw	r2,172(sp)
   423e0:	1003ea16 	blt	r2,zero,4338c <___svfprintf_internal_r+0x1c3c>
   423e4:	df002783 	ldbu	fp,158(sp)
   423e8:	d8802915 	stw	r2,164(sp)
   423ec:	dd002e15 	stw	r20,184(sp)
   423f0:	d8002a15 	stw	zero,168(sp)
   423f4:	d8003215 	stw	zero,200(sp)
   423f8:	003e9306 	br	41e48 <__alt_data_end+0xfffcfe48>
   423fc:	8025883a 	mov	r18,r16
   42400:	dc002903 	ldbu	r16,164(sp)
   42404:	e011883a 	mov	r8,fp
   42408:	84003fcc 	andi	r16,r16,255
   4240c:	803f7c26 	beq	r16,zero,42200 <__alt_data_end+0xfffd0200>
   42410:	d8c02b03 	ldbu	r3,172(sp)
   42414:	d8c02785 	stb	r3,158(sp)
   42418:	003f7906 	br	42200 <__alt_data_end+0xfffd0200>
   4241c:	8025883a 	mov	r18,r16
   42420:	dc002903 	ldbu	r16,164(sp)
   42424:	e011883a 	mov	r8,fp
   42428:	84003fcc 	andi	r16,r16,255
   4242c:	8005741e 	bne	r16,zero,43a00 <___svfprintf_internal_r+0x22b0>
   42430:	01000174 	movhi	r4,5
   42434:	211a2804 	addi	r4,r4,26784
   42438:	d9003a15 	stw	r4,232(sp)
   4243c:	9080080c 	andi	r2,r18,32
   42440:	103f8e1e 	bne	r2,zero,4227c <__alt_data_end+0xfffd027c>
   42444:	9080040c 	andi	r2,r18,16
   42448:	1002a726 	beq	r2,zero,42ee8 <___svfprintf_internal_r+0x1798>
   4244c:	d8802e17 	ldw	r2,184(sp)
   42450:	002d883a 	mov	r22,zero
   42454:	15000017 	ldw	r20,0(r2)
   42458:	10800104 	addi	r2,r2,4
   4245c:	d8802e15 	stw	r2,184(sp)
   42460:	003f8b06 	br	42290 <__alt_data_end+0xfffd0290>
   42464:	84000054 	ori	r16,r16,1
   42468:	bc400007 	ldb	r17,0(r23)
   4246c:	003d0d06 	br	418a4 <__alt_data_end+0xfffcf8a4>
   42470:	d8802b07 	ldb	r2,172(sp)
   42474:	1002a41e 	bne	r2,zero,42f08 <___svfprintf_internal_r+0x17b8>
   42478:	00c00044 	movi	r3,1
   4247c:	d8c02905 	stb	r3,164(sp)
   42480:	00c00804 	movi	r3,32
   42484:	d8c02b05 	stb	r3,172(sp)
   42488:	bc400007 	ldb	r17,0(r23)
   4248c:	003d0506 	br	418a4 <__alt_data_end+0xfffcf8a4>
   42490:	8025883a 	mov	r18,r16
   42494:	dc002903 	ldbu	r16,164(sp)
   42498:	e011883a 	mov	r8,fp
   4249c:	84003fcc 	andi	r16,r16,255
   424a0:	803e0626 	beq	r16,zero,41cbc <__alt_data_end+0xfffcfcbc>
   424a4:	d8c02b03 	ldbu	r3,172(sp)
   424a8:	d8c02785 	stb	r3,158(sp)
   424ac:	003e0306 	br	41cbc <__alt_data_end+0xfffcfcbc>
   424b0:	bc400007 	ldb	r17,0(r23)
   424b4:	00801b04 	movi	r2,108
   424b8:	88830a26 	beq	r17,r2,430e4 <___svfprintf_internal_r+0x1994>
   424bc:	84000414 	ori	r16,r16,16
   424c0:	003cf806 	br	418a4 <__alt_data_end+0xfffcf8a4>
   424c4:	8025883a 	mov	r18,r16
   424c8:	dc002903 	ldbu	r16,164(sp)
   424cc:	e011883a 	mov	r8,fp
   424d0:	84003fcc 	andi	r16,r16,255
   424d4:	8005471e 	bne	r16,zero,439f4 <___svfprintf_internal_r+0x22a4>
   424d8:	9080080c 	andi	r2,r18,32
   424dc:	10028c26 	beq	r2,zero,42f10 <___svfprintf_internal_r+0x17c0>
   424e0:	d9002e17 	ldw	r4,184(sp)
   424e4:	d9402f17 	ldw	r5,188(sp)
   424e8:	20800017 	ldw	r2,0(r4)
   424ec:	2807d7fa 	srai	r3,r5,31
   424f0:	21000104 	addi	r4,r4,4
   424f4:	d9002e15 	stw	r4,184(sp)
   424f8:	11400015 	stw	r5,0(r2)
   424fc:	10c00115 	stw	r3,4(r2)
   42500:	003cbe06 	br	417fc <__alt_data_end+0xfffcf7fc>
   42504:	84001014 	ori	r16,r16,64
   42508:	bc400007 	ldb	r17,0(r23)
   4250c:	003ce506 	br	418a4 <__alt_data_end+0xfffcf8a4>
   42510:	01000174 	movhi	r4,5
   42514:	211a2804 	addi	r4,r4,26784
   42518:	0039883a 	mov	fp,zero
   4251c:	d9003a15 	stw	r4,232(sp)
   42520:	04401e04 	movi	r17,120
   42524:	003f6906 	br	422cc <__alt_data_end+0xfffd02cc>
   42528:	8025883a 	mov	r18,r16
   4252c:	dc002903 	ldbu	r16,164(sp)
   42530:	e011883a 	mov	r8,fp
   42534:	84003fcc 	andi	r16,r16,255
   42538:	8005261e 	bne	r16,zero,439d4 <___svfprintf_internal_r+0x2284>
   4253c:	883d6526 	beq	r17,zero,41ad4 <__alt_data_end+0xfffcfad4>
   42540:	00c00044 	movi	r3,1
   42544:	d8c02915 	stw	r3,164(sp)
   42548:	dc401405 	stb	r17,80(sp)
   4254c:	d8002785 	stb	zero,158(sp)
   42550:	003f7a06 	br	4233c <__alt_data_end+0xfffd033c>
   42554:	01000174 	movhi	r4,5
   42558:	211a2804 	addi	r4,r4,26784
   4255c:	d9003a15 	stw	r4,232(sp)
   42560:	d8c02e15 	stw	r3,184(sp)
   42564:	1025883a 	mov	r18,r2
   42568:	04401e04 	movi	r17,120
   4256c:	a584b03a 	or	r2,r20,r22
   42570:	1000fa1e 	bne	r2,zero,4295c <___svfprintf_internal_r+0x120c>
   42574:	0039883a 	mov	fp,zero
   42578:	00800084 	movi	r2,2
   4257c:	10803fcc 	andi	r2,r2,255
   42580:	00c00044 	movi	r3,1
   42584:	10c21626 	beq	r2,r3,42de0 <___svfprintf_internal_r+0x1690>
   42588:	00c00084 	movi	r3,2
   4258c:	10fe0e1e 	bne	r2,r3,41dc8 <__alt_data_end+0xfffcfdc8>
   42590:	003d4606 	br	41aac <__alt_data_end+0xfffcfaac>
   42594:	d8c02017 	ldw	r3,128(sp)
   42598:	003e7306 	br	41f68 <__alt_data_end+0xfffcff68>
   4259c:	00801944 	movi	r2,101
   425a0:	14407c0e 	bge	r2,r17,42794 <___svfprintf_internal_r+0x1044>
   425a4:	d9003617 	ldw	r4,216(sp)
   425a8:	d9403717 	ldw	r5,220(sp)
   425ac:	000d883a 	mov	r6,zero
   425b0:	000f883a 	mov	r7,zero
   425b4:	d8c03d15 	stw	r3,244(sp)
   425b8:	da003e15 	stw	r8,248(sp)
   425bc:	00506480 	call	50648 <__eqdf2>
   425c0:	d8c03d17 	ldw	r3,244(sp)
   425c4:	da003e17 	ldw	r8,248(sp)
   425c8:	1000f51e 	bne	r2,zero,429a0 <___svfprintf_internal_r+0x1250>
   425cc:	d8801f17 	ldw	r2,124(sp)
   425d0:	01000174 	movhi	r4,5
   425d4:	211a2f04 	addi	r4,r4,26812
   425d8:	18c00044 	addi	r3,r3,1
   425dc:	10800044 	addi	r2,r2,1
   425e0:	41000015 	stw	r4,0(r8)
   425e4:	01000044 	movi	r4,1
   425e8:	41000115 	stw	r4,4(r8)
   425ec:	d8c02015 	stw	r3,128(sp)
   425f0:	d8801f15 	stw	r2,124(sp)
   425f4:	010001c4 	movi	r4,7
   425f8:	20826616 	blt	r4,r2,42f94 <___svfprintf_internal_r+0x1844>
   425fc:	42000204 	addi	r8,r8,8
   42600:	d8802617 	ldw	r2,152(sp)
   42604:	d9403317 	ldw	r5,204(sp)
   42608:	11400216 	blt	r2,r5,42614 <___svfprintf_internal_r+0xec4>
   4260c:	9080004c 	andi	r2,r18,1
   42610:	103eb326 	beq	r2,zero,420e0 <__alt_data_end+0xfffd00e0>
   42614:	d8803817 	ldw	r2,224(sp)
   42618:	d9003417 	ldw	r4,208(sp)
   4261c:	d9403817 	ldw	r5,224(sp)
   42620:	1887883a 	add	r3,r3,r2
   42624:	d8801f17 	ldw	r2,124(sp)
   42628:	41000015 	stw	r4,0(r8)
   4262c:	41400115 	stw	r5,4(r8)
   42630:	10800044 	addi	r2,r2,1
   42634:	d8c02015 	stw	r3,128(sp)
   42638:	d8801f15 	stw	r2,124(sp)
   4263c:	010001c4 	movi	r4,7
   42640:	2082af16 	blt	r4,r2,43100 <___svfprintf_internal_r+0x19b0>
   42644:	42000204 	addi	r8,r8,8
   42648:	d8803317 	ldw	r2,204(sp)
   4264c:	143fffc4 	addi	r16,r2,-1
   42650:	043ea30e 	bge	zero,r16,420e0 <__alt_data_end+0xfffd00e0>
   42654:	04400404 	movi	r17,16
   42658:	d8801f17 	ldw	r2,124(sp)
   4265c:	8c00860e 	bge	r17,r16,42878 <___svfprintf_internal_r+0x1128>
   42660:	01400174 	movhi	r5,5
   42664:	295a2f84 	addi	r5,r5,26814
   42668:	d9402c15 	stw	r5,176(sp)
   4266c:	058001c4 	movi	r22,7
   42670:	dd002d17 	ldw	r20,180(sp)
   42674:	00000306 	br	42684 <___svfprintf_internal_r+0xf34>
   42678:	42000204 	addi	r8,r8,8
   4267c:	843ffc04 	addi	r16,r16,-16
   42680:	8c00800e 	bge	r17,r16,42884 <___svfprintf_internal_r+0x1134>
   42684:	18c00404 	addi	r3,r3,16
   42688:	10800044 	addi	r2,r2,1
   4268c:	45400015 	stw	r21,0(r8)
   42690:	44400115 	stw	r17,4(r8)
   42694:	d8c02015 	stw	r3,128(sp)
   42698:	d8801f15 	stw	r2,124(sp)
   4269c:	b0bff60e 	bge	r22,r2,42678 <__alt_data_end+0xfffd0678>
   426a0:	d9801e04 	addi	r6,sp,120
   426a4:	a00b883a 	mov	r5,r20
   426a8:	9809883a 	mov	r4,r19
   426ac:	004b2580 	call	4b258 <__ssprint_r>
   426b0:	103d0e1e 	bne	r2,zero,41aec <__alt_data_end+0xfffcfaec>
   426b4:	d8c02017 	ldw	r3,128(sp)
   426b8:	d8801f17 	ldw	r2,124(sp)
   426bc:	da000404 	addi	r8,sp,16
   426c0:	003fee06 	br	4267c <__alt_data_end+0xfffd067c>
   426c4:	d9403117 	ldw	r5,196(sp)
   426c8:	d8802917 	ldw	r2,164(sp)
   426cc:	28adc83a 	sub	r22,r5,r2
   426d0:	05be430e 	bge	zero,r22,41fe0 <__alt_data_end+0xfffcffe0>
   426d4:	07000404 	movi	fp,16
   426d8:	d8801f17 	ldw	r2,124(sp)
   426dc:	e583a20e 	bge	fp,r22,43568 <___svfprintf_internal_r+0x1e18>
   426e0:	01400174 	movhi	r5,5
   426e4:	295a2f84 	addi	r5,r5,26814
   426e8:	dc403015 	stw	r17,192(sp)
   426ec:	d9402c15 	stw	r5,176(sp)
   426f0:	b023883a 	mov	r17,r22
   426f4:	050001c4 	movi	r20,7
   426f8:	902d883a 	mov	r22,r18
   426fc:	8025883a 	mov	r18,r16
   42700:	dc002d17 	ldw	r16,180(sp)
   42704:	00000306 	br	42714 <___svfprintf_internal_r+0xfc4>
   42708:	8c7ffc04 	addi	r17,r17,-16
   4270c:	42000204 	addi	r8,r8,8
   42710:	e440110e 	bge	fp,r17,42758 <___svfprintf_internal_r+0x1008>
   42714:	18c00404 	addi	r3,r3,16
   42718:	10800044 	addi	r2,r2,1
   4271c:	45400015 	stw	r21,0(r8)
   42720:	47000115 	stw	fp,4(r8)
   42724:	d8c02015 	stw	r3,128(sp)
   42728:	d8801f15 	stw	r2,124(sp)
   4272c:	a0bff60e 	bge	r20,r2,42708 <__alt_data_end+0xfffd0708>
   42730:	d9801e04 	addi	r6,sp,120
   42734:	800b883a 	mov	r5,r16
   42738:	9809883a 	mov	r4,r19
   4273c:	004b2580 	call	4b258 <__ssprint_r>
   42740:	103cea1e 	bne	r2,zero,41aec <__alt_data_end+0xfffcfaec>
   42744:	8c7ffc04 	addi	r17,r17,-16
   42748:	d8c02017 	ldw	r3,128(sp)
   4274c:	d8801f17 	ldw	r2,124(sp)
   42750:	da000404 	addi	r8,sp,16
   42754:	e47fef16 	blt	fp,r17,42714 <__alt_data_end+0xfffd0714>
   42758:	9021883a 	mov	r16,r18
   4275c:	b025883a 	mov	r18,r22
   42760:	882d883a 	mov	r22,r17
   42764:	dc403017 	ldw	r17,192(sp)
   42768:	d9002c17 	ldw	r4,176(sp)
   4276c:	1d87883a 	add	r3,r3,r22
   42770:	10800044 	addi	r2,r2,1
   42774:	41000015 	stw	r4,0(r8)
   42778:	45800115 	stw	r22,4(r8)
   4277c:	d8c02015 	stw	r3,128(sp)
   42780:	d8801f15 	stw	r2,124(sp)
   42784:	010001c4 	movi	r4,7
   42788:	20819a16 	blt	r4,r2,42df4 <___svfprintf_internal_r+0x16a4>
   4278c:	42000204 	addi	r8,r8,8
   42790:	003e1306 	br	41fe0 <__alt_data_end+0xfffcffe0>
   42794:	d9403317 	ldw	r5,204(sp)
   42798:	00800044 	movi	r2,1
   4279c:	18c00044 	addi	r3,r3,1
   427a0:	1141710e 	bge	r2,r5,42d68 <___svfprintf_internal_r+0x1618>
   427a4:	dc401f17 	ldw	r17,124(sp)
   427a8:	00800044 	movi	r2,1
   427ac:	40800115 	stw	r2,4(r8)
   427b0:	8c400044 	addi	r17,r17,1
   427b4:	44000015 	stw	r16,0(r8)
   427b8:	d8c02015 	stw	r3,128(sp)
   427bc:	dc401f15 	stw	r17,124(sp)
   427c0:	008001c4 	movi	r2,7
   427c4:	14417416 	blt	r2,r17,42d98 <___svfprintf_internal_r+0x1648>
   427c8:	42000204 	addi	r8,r8,8
   427cc:	d8803817 	ldw	r2,224(sp)
   427d0:	d9003417 	ldw	r4,208(sp)
   427d4:	8c400044 	addi	r17,r17,1
   427d8:	10c7883a 	add	r3,r2,r3
   427dc:	40800115 	stw	r2,4(r8)
   427e0:	41000015 	stw	r4,0(r8)
   427e4:	d8c02015 	stw	r3,128(sp)
   427e8:	dc401f15 	stw	r17,124(sp)
   427ec:	008001c4 	movi	r2,7
   427f0:	14417216 	blt	r2,r17,42dbc <___svfprintf_internal_r+0x166c>
   427f4:	45800204 	addi	r22,r8,8
   427f8:	d9003617 	ldw	r4,216(sp)
   427fc:	d9403717 	ldw	r5,220(sp)
   42800:	000d883a 	mov	r6,zero
   42804:	000f883a 	mov	r7,zero
   42808:	d8c03d15 	stw	r3,244(sp)
   4280c:	00506480 	call	50648 <__eqdf2>
   42810:	d8c03d17 	ldw	r3,244(sp)
   42814:	1000b326 	beq	r2,zero,42ae4 <___svfprintf_internal_r+0x1394>
   42818:	d9403317 	ldw	r5,204(sp)
   4281c:	84000044 	addi	r16,r16,1
   42820:	8c400044 	addi	r17,r17,1
   42824:	28bfffc4 	addi	r2,r5,-1
   42828:	1887883a 	add	r3,r3,r2
   4282c:	b0800115 	stw	r2,4(r22)
   42830:	b4000015 	stw	r16,0(r22)
   42834:	d8c02015 	stw	r3,128(sp)
   42838:	dc401f15 	stw	r17,124(sp)
   4283c:	008001c4 	movi	r2,7
   42840:	1440d216 	blt	r2,r17,42b8c <___svfprintf_internal_r+0x143c>
   42844:	b5800204 	addi	r22,r22,8
   42848:	d9003b17 	ldw	r4,236(sp)
   4284c:	df0022c4 	addi	fp,sp,139
   42850:	8c400044 	addi	r17,r17,1
   42854:	20c7883a 	add	r3,r4,r3
   42858:	b7000015 	stw	fp,0(r22)
   4285c:	b1000115 	stw	r4,4(r22)
   42860:	d8c02015 	stw	r3,128(sp)
   42864:	dc401f15 	stw	r17,124(sp)
   42868:	008001c4 	movi	r2,7
   4286c:	14400e16 	blt	r2,r17,428a8 <___svfprintf_internal_r+0x1158>
   42870:	b2000204 	addi	r8,r22,8
   42874:	003e1a06 	br	420e0 <__alt_data_end+0xfffd00e0>
   42878:	01000174 	movhi	r4,5
   4287c:	211a2f84 	addi	r4,r4,26814
   42880:	d9002c15 	stw	r4,176(sp)
   42884:	d9002c17 	ldw	r4,176(sp)
   42888:	1c07883a 	add	r3,r3,r16
   4288c:	44000115 	stw	r16,4(r8)
   42890:	41000015 	stw	r4,0(r8)
   42894:	10800044 	addi	r2,r2,1
   42898:	d8c02015 	stw	r3,128(sp)
   4289c:	d8801f15 	stw	r2,124(sp)
   428a0:	010001c4 	movi	r4,7
   428a4:	20be0d0e 	bge	r4,r2,420dc <__alt_data_end+0xfffd00dc>
   428a8:	d9402d17 	ldw	r5,180(sp)
   428ac:	d9801e04 	addi	r6,sp,120
   428b0:	9809883a 	mov	r4,r19
   428b4:	004b2580 	call	4b258 <__ssprint_r>
   428b8:	103c8c1e 	bne	r2,zero,41aec <__alt_data_end+0xfffcfaec>
   428bc:	d8c02017 	ldw	r3,128(sp)
   428c0:	da000404 	addi	r8,sp,16
   428c4:	003e0606 	br	420e0 <__alt_data_end+0xfffd00e0>
   428c8:	d9402d17 	ldw	r5,180(sp)
   428cc:	d9801e04 	addi	r6,sp,120
   428d0:	9809883a 	mov	r4,r19
   428d4:	004b2580 	call	4b258 <__ssprint_r>
   428d8:	103e3d26 	beq	r2,zero,421d0 <__alt_data_end+0xfffd01d0>
   428dc:	003c8306 	br	41aec <__alt_data_end+0xfffcfaec>
   428e0:	d9402d17 	ldw	r5,180(sp)
   428e4:	d9801e04 	addi	r6,sp,120
   428e8:	9809883a 	mov	r4,r19
   428ec:	004b2580 	call	4b258 <__ssprint_r>
   428f0:	103c7e1e 	bne	r2,zero,41aec <__alt_data_end+0xfffcfaec>
   428f4:	d8c02017 	ldw	r3,128(sp)
   428f8:	da000404 	addi	r8,sp,16
   428fc:	003deb06 	br	420ac <__alt_data_end+0xfffd00ac>
   42900:	d9402d17 	ldw	r5,180(sp)
   42904:	d9801e04 	addi	r6,sp,120
   42908:	9809883a 	mov	r4,r19
   4290c:	004b2580 	call	4b258 <__ssprint_r>
   42910:	103c761e 	bne	r2,zero,41aec <__alt_data_end+0xfffcfaec>
   42914:	d8c02017 	ldw	r3,128(sp)
   42918:	da000404 	addi	r8,sp,16
   4291c:	003d9f06 	br	41f9c <__alt_data_end+0xfffcff9c>
   42920:	d9402d17 	ldw	r5,180(sp)
   42924:	d9801e04 	addi	r6,sp,120
   42928:	9809883a 	mov	r4,r19
   4292c:	004b2580 	call	4b258 <__ssprint_r>
   42930:	103c6e1e 	bne	r2,zero,41aec <__alt_data_end+0xfffcfaec>
   42934:	d8c02017 	ldw	r3,128(sp)
   42938:	da000404 	addi	r8,sp,16
   4293c:	003da506 	br	41fd4 <__alt_data_end+0xfffcffd4>
   42940:	d9402a17 	ldw	r5,168(sp)
   42944:	d8002785 	stb	zero,158(sp)
   42948:	283f0816 	blt	r5,zero,4256c <__alt_data_end+0xfffd056c>
   4294c:	00ffdfc4 	movi	r3,-129
   42950:	a584b03a 	or	r2,r20,r22
   42954:	90e4703a 	and	r18,r18,r3
   42958:	103c5126 	beq	r2,zero,41aa0 <__alt_data_end+0xfffcfaa0>
   4295c:	0039883a 	mov	fp,zero
   42960:	003e5a06 	br	422cc <__alt_data_end+0xfffd02cc>
   42964:	9080040c 	andi	r2,r18,16
   42968:	10013d26 	beq	r2,zero,42e60 <___svfprintf_internal_r+0x1710>
   4296c:	d8c02e17 	ldw	r3,184(sp)
   42970:	d9002a17 	ldw	r4,168(sp)
   42974:	d8002785 	stb	zero,158(sp)
   42978:	18800104 	addi	r2,r3,4
   4297c:	1d000017 	ldw	r20,0(r3)
   42980:	002d883a 	mov	r22,zero
   42984:	20013f16 	blt	r4,zero,42e84 <___svfprintf_internal_r+0x1734>
   42988:	00ffdfc4 	movi	r3,-129
   4298c:	d8802e15 	stw	r2,184(sp)
   42990:	90e4703a 	and	r18,r18,r3
   42994:	a03d0926 	beq	r20,zero,41dbc <__alt_data_end+0xfffcfdbc>
   42998:	0039883a 	mov	fp,zero
   4299c:	003d0c06 	br	41dd0 <__alt_data_end+0xfffcfdd0>
   429a0:	dc402617 	ldw	r17,152(sp)
   429a4:	0441830e 	bge	zero,r17,42fb4 <___svfprintf_internal_r+0x1864>
   429a8:	dc403217 	ldw	r17,200(sp)
   429ac:	d8803317 	ldw	r2,204(sp)
   429b0:	1440010e 	bge	r2,r17,429b8 <___svfprintf_internal_r+0x1268>
   429b4:	1023883a 	mov	r17,r2
   429b8:	04400a0e 	bge	zero,r17,429e4 <___svfprintf_internal_r+0x1294>
   429bc:	d8801f17 	ldw	r2,124(sp)
   429c0:	1c47883a 	add	r3,r3,r17
   429c4:	44000015 	stw	r16,0(r8)
   429c8:	10800044 	addi	r2,r2,1
   429cc:	44400115 	stw	r17,4(r8)
   429d0:	d8c02015 	stw	r3,128(sp)
   429d4:	d8801f15 	stw	r2,124(sp)
   429d8:	010001c4 	movi	r4,7
   429dc:	20827516 	blt	r4,r2,433b4 <___svfprintf_internal_r+0x1c64>
   429e0:	42000204 	addi	r8,r8,8
   429e4:	88027b16 	blt	r17,zero,433d4 <___svfprintf_internal_r+0x1c84>
   429e8:	d9003217 	ldw	r4,200(sp)
   429ec:	2463c83a 	sub	r17,r4,r17
   429f0:	0440990e 	bge	zero,r17,42c58 <___svfprintf_internal_r+0x1508>
   429f4:	05800404 	movi	r22,16
   429f8:	d8801f17 	ldw	r2,124(sp)
   429fc:	b441530e 	bge	r22,r17,42f4c <___svfprintf_internal_r+0x17fc>
   42a00:	01000174 	movhi	r4,5
   42a04:	211a2f84 	addi	r4,r4,26814
   42a08:	d9002c15 	stw	r4,176(sp)
   42a0c:	070001c4 	movi	fp,7
   42a10:	dd002d17 	ldw	r20,180(sp)
   42a14:	00000306 	br	42a24 <___svfprintf_internal_r+0x12d4>
   42a18:	42000204 	addi	r8,r8,8
   42a1c:	8c7ffc04 	addi	r17,r17,-16
   42a20:	b4414d0e 	bge	r22,r17,42f58 <___svfprintf_internal_r+0x1808>
   42a24:	18c00404 	addi	r3,r3,16
   42a28:	10800044 	addi	r2,r2,1
   42a2c:	45400015 	stw	r21,0(r8)
   42a30:	45800115 	stw	r22,4(r8)
   42a34:	d8c02015 	stw	r3,128(sp)
   42a38:	d8801f15 	stw	r2,124(sp)
   42a3c:	e0bff60e 	bge	fp,r2,42a18 <__alt_data_end+0xfffd0a18>
   42a40:	d9801e04 	addi	r6,sp,120
   42a44:	a00b883a 	mov	r5,r20
   42a48:	9809883a 	mov	r4,r19
   42a4c:	004b2580 	call	4b258 <__ssprint_r>
   42a50:	103c261e 	bne	r2,zero,41aec <__alt_data_end+0xfffcfaec>
   42a54:	d8c02017 	ldw	r3,128(sp)
   42a58:	d8801f17 	ldw	r2,124(sp)
   42a5c:	da000404 	addi	r8,sp,16
   42a60:	003fee06 	br	42a1c <__alt_data_end+0xfffd0a1c>
   42a64:	d9402d17 	ldw	r5,180(sp)
   42a68:	d9801e04 	addi	r6,sp,120
   42a6c:	9809883a 	mov	r4,r19
   42a70:	004b2580 	call	4b258 <__ssprint_r>
   42a74:	103c1d1e 	bne	r2,zero,41aec <__alt_data_end+0xfffcfaec>
   42a78:	d8c02017 	ldw	r3,128(sp)
   42a7c:	df002787 	ldb	fp,158(sp)
   42a80:	da000404 	addi	r8,sp,16
   42a84:	003d3806 	br	41f68 <__alt_data_end+0xfffcff68>
   42a88:	9080040c 	andi	r2,r18,16
   42a8c:	10005c26 	beq	r2,zero,42c00 <___svfprintf_internal_r+0x14b0>
   42a90:	d8c02e17 	ldw	r3,184(sp)
   42a94:	d9002a17 	ldw	r4,168(sp)
   42a98:	d8002785 	stb	zero,158(sp)
   42a9c:	18800104 	addi	r2,r3,4
   42aa0:	1d000017 	ldw	r20,0(r3)
   42aa4:	002d883a 	mov	r22,zero
   42aa8:	20005e16 	blt	r4,zero,42c24 <___svfprintf_internal_r+0x14d4>
   42aac:	00ffdfc4 	movi	r3,-129
   42ab0:	d8802e15 	stw	r2,184(sp)
   42ab4:	90e4703a 	and	r18,r18,r3
   42ab8:	0039883a 	mov	fp,zero
   42abc:	a03ddf26 	beq	r20,zero,4223c <__alt_data_end+0xfffd023c>
   42ac0:	00800244 	movi	r2,9
   42ac4:	153c8e36 	bltu	r2,r20,41d00 <__alt_data_end+0xfffcfd00>
   42ac8:	a5000c04 	addi	r20,r20,48
   42acc:	dc001dc4 	addi	r16,sp,119
   42ad0:	dd001dc5 	stb	r20,119(sp)
   42ad4:	d8c02817 	ldw	r3,160(sp)
   42ad8:	1c07c83a 	sub	r3,r3,r16
   42adc:	d8c02b15 	stw	r3,172(sp)
   42ae0:	003cd306 	br	41e30 <__alt_data_end+0xfffcfe30>
   42ae4:	d8803317 	ldw	r2,204(sp)
   42ae8:	143fffc4 	addi	r16,r2,-1
   42aec:	043f560e 	bge	zero,r16,42848 <__alt_data_end+0xfffd0848>
   42af0:	07000404 	movi	fp,16
   42af4:	e403530e 	bge	fp,r16,43844 <___svfprintf_internal_r+0x20f4>
   42af8:	01400174 	movhi	r5,5
   42afc:	295a2f84 	addi	r5,r5,26814
   42b00:	d9402c15 	stw	r5,176(sp)
   42b04:	01c001c4 	movi	r7,7
   42b08:	dd002d17 	ldw	r20,180(sp)
   42b0c:	00000306 	br	42b1c <___svfprintf_internal_r+0x13cc>
   42b10:	843ffc04 	addi	r16,r16,-16
   42b14:	b5800204 	addi	r22,r22,8
   42b18:	e400130e 	bge	fp,r16,42b68 <___svfprintf_internal_r+0x1418>
   42b1c:	18c00404 	addi	r3,r3,16
   42b20:	8c400044 	addi	r17,r17,1
   42b24:	b5400015 	stw	r21,0(r22)
   42b28:	b7000115 	stw	fp,4(r22)
   42b2c:	d8c02015 	stw	r3,128(sp)
   42b30:	dc401f15 	stw	r17,124(sp)
   42b34:	3c7ff60e 	bge	r7,r17,42b10 <__alt_data_end+0xfffd0b10>
   42b38:	d9801e04 	addi	r6,sp,120
   42b3c:	a00b883a 	mov	r5,r20
   42b40:	9809883a 	mov	r4,r19
   42b44:	d9c03d15 	stw	r7,244(sp)
   42b48:	004b2580 	call	4b258 <__ssprint_r>
   42b4c:	d9c03d17 	ldw	r7,244(sp)
   42b50:	103be61e 	bne	r2,zero,41aec <__alt_data_end+0xfffcfaec>
   42b54:	843ffc04 	addi	r16,r16,-16
   42b58:	d8c02017 	ldw	r3,128(sp)
   42b5c:	dc401f17 	ldw	r17,124(sp)
   42b60:	dd800404 	addi	r22,sp,16
   42b64:	e43fed16 	blt	fp,r16,42b1c <__alt_data_end+0xfffd0b1c>
   42b68:	d8802c17 	ldw	r2,176(sp)
   42b6c:	1c07883a 	add	r3,r3,r16
   42b70:	8c400044 	addi	r17,r17,1
   42b74:	b0800015 	stw	r2,0(r22)
   42b78:	b4000115 	stw	r16,4(r22)
   42b7c:	d8c02015 	stw	r3,128(sp)
   42b80:	dc401f15 	stw	r17,124(sp)
   42b84:	008001c4 	movi	r2,7
   42b88:	147f2e0e 	bge	r2,r17,42844 <__alt_data_end+0xfffd0844>
   42b8c:	d9402d17 	ldw	r5,180(sp)
   42b90:	d9801e04 	addi	r6,sp,120
   42b94:	9809883a 	mov	r4,r19
   42b98:	004b2580 	call	4b258 <__ssprint_r>
   42b9c:	103bd31e 	bne	r2,zero,41aec <__alt_data_end+0xfffcfaec>
   42ba0:	d8c02017 	ldw	r3,128(sp)
   42ba4:	dc401f17 	ldw	r17,124(sp)
   42ba8:	dd800404 	addi	r22,sp,16
   42bac:	003f2606 	br	42848 <__alt_data_end+0xfffd0848>
   42bb0:	9080040c 	andi	r2,r18,16
   42bb4:	1000c326 	beq	r2,zero,42ec4 <___svfprintf_internal_r+0x1774>
   42bb8:	d9402e17 	ldw	r5,184(sp)
   42bbc:	2d000017 	ldw	r20,0(r5)
   42bc0:	29400104 	addi	r5,r5,4
   42bc4:	d9402e15 	stw	r5,184(sp)
   42bc8:	a02dd7fa 	srai	r22,r20,31
   42bcc:	b005883a 	mov	r2,r22
   42bd0:	103c430e 	bge	r2,zero,41ce0 <__alt_data_end+0xfffcfce0>
   42bd4:	d9402a17 	ldw	r5,168(sp)
   42bd8:	0529c83a 	sub	r20,zero,r20
   42bdc:	07000b44 	movi	fp,45
   42be0:	a004c03a 	cmpne	r2,r20,zero
   42be4:	05adc83a 	sub	r22,zero,r22
   42be8:	df002785 	stb	fp,158(sp)
   42bec:	b0adc83a 	sub	r22,r22,r2
   42bf0:	28022e16 	blt	r5,zero,434ac <___svfprintf_internal_r+0x1d5c>
   42bf4:	00bfdfc4 	movi	r2,-129
   42bf8:	90a4703a 	and	r18,r18,r2
   42bfc:	003c3f06 	br	41cfc <__alt_data_end+0xfffcfcfc>
   42c00:	9080100c 	andi	r2,r18,64
   42c04:	d8002785 	stb	zero,158(sp)
   42c08:	10012526 	beq	r2,zero,430a0 <___svfprintf_internal_r+0x1950>
   42c0c:	d9402e17 	ldw	r5,184(sp)
   42c10:	d8c02a17 	ldw	r3,168(sp)
   42c14:	002d883a 	mov	r22,zero
   42c18:	28800104 	addi	r2,r5,4
   42c1c:	2d00000b 	ldhu	r20,0(r5)
   42c20:	183fa20e 	bge	r3,zero,42aac <__alt_data_end+0xfffd0aac>
   42c24:	d8802e15 	stw	r2,184(sp)
   42c28:	0039883a 	mov	fp,zero
   42c2c:	a584b03a 	or	r2,r20,r22
   42c30:	103c321e 	bne	r2,zero,41cfc <__alt_data_end+0xfffcfcfc>
   42c34:	00800044 	movi	r2,1
   42c38:	003e5006 	br	4257c <__alt_data_end+0xfffd057c>
   42c3c:	d9402d17 	ldw	r5,180(sp)
   42c40:	d9801e04 	addi	r6,sp,120
   42c44:	9809883a 	mov	r4,r19
   42c48:	004b2580 	call	4b258 <__ssprint_r>
   42c4c:	103ba71e 	bne	r2,zero,41aec <__alt_data_end+0xfffcfaec>
   42c50:	d8c02017 	ldw	r3,128(sp)
   42c54:	da000404 	addi	r8,sp,16
   42c58:	d9003217 	ldw	r4,200(sp)
   42c5c:	d8802617 	ldw	r2,152(sp)
   42c60:	d9403317 	ldw	r5,204(sp)
   42c64:	8123883a 	add	r17,r16,r4
   42c68:	11400216 	blt	r2,r5,42c74 <___svfprintf_internal_r+0x1524>
   42c6c:	9100004c 	andi	r4,r18,1
   42c70:	20000d26 	beq	r4,zero,42ca8 <___svfprintf_internal_r+0x1558>
   42c74:	d9003817 	ldw	r4,224(sp)
   42c78:	d9403417 	ldw	r5,208(sp)
   42c7c:	1907883a 	add	r3,r3,r4
   42c80:	d9001f17 	ldw	r4,124(sp)
   42c84:	41400015 	stw	r5,0(r8)
   42c88:	d9403817 	ldw	r5,224(sp)
   42c8c:	21000044 	addi	r4,r4,1
   42c90:	d8c02015 	stw	r3,128(sp)
   42c94:	41400115 	stw	r5,4(r8)
   42c98:	d9001f15 	stw	r4,124(sp)
   42c9c:	014001c4 	movi	r5,7
   42ca0:	2901dc16 	blt	r5,r4,43414 <___svfprintf_internal_r+0x1cc4>
   42ca4:	42000204 	addi	r8,r8,8
   42ca8:	d9003317 	ldw	r4,204(sp)
   42cac:	8121883a 	add	r16,r16,r4
   42cb0:	2085c83a 	sub	r2,r4,r2
   42cb4:	8461c83a 	sub	r16,r16,r17
   42cb8:	1400010e 	bge	r2,r16,42cc0 <___svfprintf_internal_r+0x1570>
   42cbc:	1021883a 	mov	r16,r2
   42cc0:	04000a0e 	bge	zero,r16,42cec <___svfprintf_internal_r+0x159c>
   42cc4:	d9001f17 	ldw	r4,124(sp)
   42cc8:	1c07883a 	add	r3,r3,r16
   42ccc:	44400015 	stw	r17,0(r8)
   42cd0:	21000044 	addi	r4,r4,1
   42cd4:	44000115 	stw	r16,4(r8)
   42cd8:	d8c02015 	stw	r3,128(sp)
   42cdc:	d9001f15 	stw	r4,124(sp)
   42ce0:	014001c4 	movi	r5,7
   42ce4:	2901e616 	blt	r5,r4,43480 <___svfprintf_internal_r+0x1d30>
   42ce8:	42000204 	addi	r8,r8,8
   42cec:	8001f616 	blt	r16,zero,434c8 <___svfprintf_internal_r+0x1d78>
   42cf0:	1421c83a 	sub	r16,r2,r16
   42cf4:	043cfa0e 	bge	zero,r16,420e0 <__alt_data_end+0xfffd00e0>
   42cf8:	04400404 	movi	r17,16
   42cfc:	d8801f17 	ldw	r2,124(sp)
   42d00:	8c3edd0e 	bge	r17,r16,42878 <__alt_data_end+0xfffd0878>
   42d04:	01400174 	movhi	r5,5
   42d08:	295a2f84 	addi	r5,r5,26814
   42d0c:	d9402c15 	stw	r5,176(sp)
   42d10:	058001c4 	movi	r22,7
   42d14:	dd002d17 	ldw	r20,180(sp)
   42d18:	00000306 	br	42d28 <___svfprintf_internal_r+0x15d8>
   42d1c:	42000204 	addi	r8,r8,8
   42d20:	843ffc04 	addi	r16,r16,-16
   42d24:	8c3ed70e 	bge	r17,r16,42884 <__alt_data_end+0xfffd0884>
   42d28:	18c00404 	addi	r3,r3,16
   42d2c:	10800044 	addi	r2,r2,1
   42d30:	45400015 	stw	r21,0(r8)
   42d34:	44400115 	stw	r17,4(r8)
   42d38:	d8c02015 	stw	r3,128(sp)
   42d3c:	d8801f15 	stw	r2,124(sp)
   42d40:	b0bff60e 	bge	r22,r2,42d1c <__alt_data_end+0xfffd0d1c>
   42d44:	d9801e04 	addi	r6,sp,120
   42d48:	a00b883a 	mov	r5,r20
   42d4c:	9809883a 	mov	r4,r19
   42d50:	004b2580 	call	4b258 <__ssprint_r>
   42d54:	103b651e 	bne	r2,zero,41aec <__alt_data_end+0xfffcfaec>
   42d58:	d8c02017 	ldw	r3,128(sp)
   42d5c:	d8801f17 	ldw	r2,124(sp)
   42d60:	da000404 	addi	r8,sp,16
   42d64:	003fee06 	br	42d20 <__alt_data_end+0xfffd0d20>
   42d68:	9088703a 	and	r4,r18,r2
   42d6c:	203e8d1e 	bne	r4,zero,427a4 <__alt_data_end+0xfffd07a4>
   42d70:	dc401f17 	ldw	r17,124(sp)
   42d74:	40800115 	stw	r2,4(r8)
   42d78:	44000015 	stw	r16,0(r8)
   42d7c:	8c400044 	addi	r17,r17,1
   42d80:	d8c02015 	stw	r3,128(sp)
   42d84:	dc401f15 	stw	r17,124(sp)
   42d88:	008001c4 	movi	r2,7
   42d8c:	147f7f16 	blt	r2,r17,42b8c <__alt_data_end+0xfffd0b8c>
   42d90:	45800204 	addi	r22,r8,8
   42d94:	003eac06 	br	42848 <__alt_data_end+0xfffd0848>
   42d98:	d9402d17 	ldw	r5,180(sp)
   42d9c:	d9801e04 	addi	r6,sp,120
   42da0:	9809883a 	mov	r4,r19
   42da4:	004b2580 	call	4b258 <__ssprint_r>
   42da8:	103b501e 	bne	r2,zero,41aec <__alt_data_end+0xfffcfaec>
   42dac:	d8c02017 	ldw	r3,128(sp)
   42db0:	dc401f17 	ldw	r17,124(sp)
   42db4:	da000404 	addi	r8,sp,16
   42db8:	003e8406 	br	427cc <__alt_data_end+0xfffd07cc>
   42dbc:	d9402d17 	ldw	r5,180(sp)
   42dc0:	d9801e04 	addi	r6,sp,120
   42dc4:	9809883a 	mov	r4,r19
   42dc8:	004b2580 	call	4b258 <__ssprint_r>
   42dcc:	103b471e 	bne	r2,zero,41aec <__alt_data_end+0xfffcfaec>
   42dd0:	d8c02017 	ldw	r3,128(sp)
   42dd4:	dc401f17 	ldw	r17,124(sp)
   42dd8:	dd800404 	addi	r22,sp,16
   42ddc:	003e8606 	br	427f8 <__alt_data_end+0xfffd07f8>
   42de0:	0029883a 	mov	r20,zero
   42de4:	a5000c04 	addi	r20,r20,48
   42de8:	dc001dc4 	addi	r16,sp,119
   42dec:	dd001dc5 	stb	r20,119(sp)
   42df0:	003f3806 	br	42ad4 <__alt_data_end+0xfffd0ad4>
   42df4:	d9402d17 	ldw	r5,180(sp)
   42df8:	d9801e04 	addi	r6,sp,120
   42dfc:	9809883a 	mov	r4,r19
   42e00:	004b2580 	call	4b258 <__ssprint_r>
   42e04:	103b391e 	bne	r2,zero,41aec <__alt_data_end+0xfffcfaec>
   42e08:	d8c02017 	ldw	r3,128(sp)
   42e0c:	da000404 	addi	r8,sp,16
   42e10:	003c7306 	br	41fe0 <__alt_data_end+0xfffcffe0>
   42e14:	d9003617 	ldw	r4,216(sp)
   42e18:	d9403717 	ldw	r5,220(sp)
   42e1c:	da003e15 	stw	r8,248(sp)
   42e20:	004af780 	call	4af78 <__fpclassifyd>
   42e24:	da003e17 	ldw	r8,248(sp)
   42e28:	1000bd1e 	bne	r2,zero,43120 <___svfprintf_internal_r+0x19d0>
   42e2c:	008011c4 	movi	r2,71
   42e30:	14411e0e 	bge	r2,r17,432ac <___svfprintf_internal_r+0x1b5c>
   42e34:	04000174 	movhi	r16,5
   42e38:	841a2204 	addi	r16,r16,26760
   42e3c:	00c000c4 	movi	r3,3
   42e40:	00bfdfc4 	movi	r2,-129
   42e44:	d8c02915 	stw	r3,164(sp)
   42e48:	90a4703a 	and	r18,r18,r2
   42e4c:	df002783 	ldbu	fp,158(sp)
   42e50:	d8c02b15 	stw	r3,172(sp)
   42e54:	d8002a15 	stw	zero,168(sp)
   42e58:	d8003215 	stw	zero,200(sp)
   42e5c:	003bfa06 	br	41e48 <__alt_data_end+0xfffcfe48>
   42e60:	9080100c 	andi	r2,r18,64
   42e64:	d8002785 	stb	zero,158(sp)
   42e68:	10009426 	beq	r2,zero,430bc <___svfprintf_internal_r+0x196c>
   42e6c:	d9402e17 	ldw	r5,184(sp)
   42e70:	d8c02a17 	ldw	r3,168(sp)
   42e74:	002d883a 	mov	r22,zero
   42e78:	28800104 	addi	r2,r5,4
   42e7c:	2d00000b 	ldhu	r20,0(r5)
   42e80:	183ec10e 	bge	r3,zero,42988 <__alt_data_end+0xfffd0988>
   42e84:	a586b03a 	or	r3,r20,r22
   42e88:	d8802e15 	stw	r2,184(sp)
   42e8c:	183ec21e 	bne	r3,zero,42998 <__alt_data_end+0xfffd0998>
   42e90:	0039883a 	mov	fp,zero
   42e94:	0005883a 	mov	r2,zero
   42e98:	003db806 	br	4257c <__alt_data_end+0xfffd057c>
   42e9c:	d8c02e17 	ldw	r3,184(sp)
   42ea0:	d9002e17 	ldw	r4,184(sp)
   42ea4:	d9402e17 	ldw	r5,184(sp)
   42ea8:	18c00017 	ldw	r3,0(r3)
   42eac:	21000117 	ldw	r4,4(r4)
   42eb0:	29400204 	addi	r5,r5,8
   42eb4:	d8c03615 	stw	r3,216(sp)
   42eb8:	d9003715 	stw	r4,220(sp)
   42ebc:	d9402e15 	stw	r5,184(sp)
   42ec0:	003b5a06 	br	41c2c <__alt_data_end+0xfffcfc2c>
   42ec4:	9080100c 	andi	r2,r18,64
   42ec8:	10010726 	beq	r2,zero,432e8 <___svfprintf_internal_r+0x1b98>
   42ecc:	d8802e17 	ldw	r2,184(sp)
   42ed0:	1500000f 	ldh	r20,0(r2)
   42ed4:	10800104 	addi	r2,r2,4
   42ed8:	d8802e15 	stw	r2,184(sp)
   42edc:	a02dd7fa 	srai	r22,r20,31
   42ee0:	b005883a 	mov	r2,r22
   42ee4:	003b7d06 	br	41cdc <__alt_data_end+0xfffcfcdc>
   42ee8:	9080100c 	andi	r2,r18,64
   42eec:	10010526 	beq	r2,zero,43304 <___svfprintf_internal_r+0x1bb4>
   42ef0:	d8c02e17 	ldw	r3,184(sp)
   42ef4:	002d883a 	mov	r22,zero
   42ef8:	1d00000b 	ldhu	r20,0(r3)
   42efc:	18c00104 	addi	r3,r3,4
   42f00:	d8c02e15 	stw	r3,184(sp)
   42f04:	003ce206 	br	42290 <__alt_data_end+0xfffd0290>
   42f08:	bc400007 	ldb	r17,0(r23)
   42f0c:	003a6506 	br	418a4 <__alt_data_end+0xfffcf8a4>
   42f10:	9080040c 	andi	r2,r18,16
   42f14:	10010126 	beq	r2,zero,4331c <___svfprintf_internal_r+0x1bcc>
   42f18:	d8c02e17 	ldw	r3,184(sp)
   42f1c:	d9002f17 	ldw	r4,188(sp)
   42f20:	18800017 	ldw	r2,0(r3)
   42f24:	18c00104 	addi	r3,r3,4
   42f28:	d8c02e15 	stw	r3,184(sp)
   42f2c:	11000015 	stw	r4,0(r2)
   42f30:	003a3206 	br	417fc <__alt_data_end+0xfffcf7fc>
   42f34:	d9002a17 	ldw	r4,168(sp)
   42f38:	d8002785 	stb	zero,158(sp)
   42f3c:	203d8d16 	blt	r4,zero,42574 <__alt_data_end+0xfffd0574>
   42f40:	00bfdfc4 	movi	r2,-129
   42f44:	90a4703a 	and	r18,r18,r2
   42f48:	003ad506 	br	41aa0 <__alt_data_end+0xfffcfaa0>
   42f4c:	01400174 	movhi	r5,5
   42f50:	295a2f84 	addi	r5,r5,26814
   42f54:	d9402c15 	stw	r5,176(sp)
   42f58:	d9402c17 	ldw	r5,176(sp)
   42f5c:	1c47883a 	add	r3,r3,r17
   42f60:	10800044 	addi	r2,r2,1
   42f64:	41400015 	stw	r5,0(r8)
   42f68:	44400115 	stw	r17,4(r8)
   42f6c:	d8c02015 	stw	r3,128(sp)
   42f70:	d8801f15 	stw	r2,124(sp)
   42f74:	010001c4 	movi	r4,7
   42f78:	20bf3016 	blt	r4,r2,42c3c <__alt_data_end+0xfffd0c3c>
   42f7c:	42000204 	addi	r8,r8,8
   42f80:	003f3506 	br	42c58 <__alt_data_end+0xfffd0c58>
   42f84:	01000174 	movhi	r4,5
   42f88:	211a2f84 	addi	r4,r4,26814
   42f8c:	d9002c15 	stw	r4,176(sp)
   42f90:	003c3c06 	br	42084 <__alt_data_end+0xfffd0084>
   42f94:	d9402d17 	ldw	r5,180(sp)
   42f98:	d9801e04 	addi	r6,sp,120
   42f9c:	9809883a 	mov	r4,r19
   42fa0:	004b2580 	call	4b258 <__ssprint_r>
   42fa4:	103ad11e 	bne	r2,zero,41aec <__alt_data_end+0xfffcfaec>
   42fa8:	d8c02017 	ldw	r3,128(sp)
   42fac:	da000404 	addi	r8,sp,16
   42fb0:	003d9306 	br	42600 <__alt_data_end+0xfffd0600>
   42fb4:	d8801f17 	ldw	r2,124(sp)
   42fb8:	01400174 	movhi	r5,5
   42fbc:	01000044 	movi	r4,1
   42fc0:	18c00044 	addi	r3,r3,1
   42fc4:	10800044 	addi	r2,r2,1
   42fc8:	295a2f04 	addi	r5,r5,26812
   42fcc:	41000115 	stw	r4,4(r8)
   42fd0:	41400015 	stw	r5,0(r8)
   42fd4:	d8c02015 	stw	r3,128(sp)
   42fd8:	d8801f15 	stw	r2,124(sp)
   42fdc:	010001c4 	movi	r4,7
   42fe0:	2080b516 	blt	r4,r2,432b8 <___svfprintf_internal_r+0x1b68>
   42fe4:	42000204 	addi	r8,r8,8
   42fe8:	8800041e 	bne	r17,zero,42ffc <___svfprintf_internal_r+0x18ac>
   42fec:	d8803317 	ldw	r2,204(sp)
   42ff0:	1000021e 	bne	r2,zero,42ffc <___svfprintf_internal_r+0x18ac>
   42ff4:	9080004c 	andi	r2,r18,1
   42ff8:	103c3926 	beq	r2,zero,420e0 <__alt_data_end+0xfffd00e0>
   42ffc:	d9003817 	ldw	r4,224(sp)
   43000:	d8801f17 	ldw	r2,124(sp)
   43004:	d9403417 	ldw	r5,208(sp)
   43008:	20c7883a 	add	r3,r4,r3
   4300c:	10800044 	addi	r2,r2,1
   43010:	41000115 	stw	r4,4(r8)
   43014:	41400015 	stw	r5,0(r8)
   43018:	d8c02015 	stw	r3,128(sp)
   4301c:	d8801f15 	stw	r2,124(sp)
   43020:	010001c4 	movi	r4,7
   43024:	20818016 	blt	r4,r2,43628 <___svfprintf_internal_r+0x1ed8>
   43028:	42000204 	addi	r8,r8,8
   4302c:	0463c83a 	sub	r17,zero,r17
   43030:	0440cb0e 	bge	zero,r17,43360 <___svfprintf_internal_r+0x1c10>
   43034:	05800404 	movi	r22,16
   43038:	b440e80e 	bge	r22,r17,433dc <___svfprintf_internal_r+0x1c8c>
   4303c:	01400174 	movhi	r5,5
   43040:	295a2f84 	addi	r5,r5,26814
   43044:	d9402c15 	stw	r5,176(sp)
   43048:	070001c4 	movi	fp,7
   4304c:	dd002d17 	ldw	r20,180(sp)
   43050:	00000306 	br	43060 <___svfprintf_internal_r+0x1910>
   43054:	42000204 	addi	r8,r8,8
   43058:	8c7ffc04 	addi	r17,r17,-16
   4305c:	b440e20e 	bge	r22,r17,433e8 <___svfprintf_internal_r+0x1c98>
   43060:	18c00404 	addi	r3,r3,16
   43064:	10800044 	addi	r2,r2,1
   43068:	45400015 	stw	r21,0(r8)
   4306c:	45800115 	stw	r22,4(r8)
   43070:	d8c02015 	stw	r3,128(sp)
   43074:	d8801f15 	stw	r2,124(sp)
   43078:	e0bff60e 	bge	fp,r2,43054 <__alt_data_end+0xfffd1054>
   4307c:	d9801e04 	addi	r6,sp,120
   43080:	a00b883a 	mov	r5,r20
   43084:	9809883a 	mov	r4,r19
   43088:	004b2580 	call	4b258 <__ssprint_r>
   4308c:	103a971e 	bne	r2,zero,41aec <__alt_data_end+0xfffcfaec>
   43090:	d8c02017 	ldw	r3,128(sp)
   43094:	d8801f17 	ldw	r2,124(sp)
   43098:	da000404 	addi	r8,sp,16
   4309c:	003fee06 	br	43058 <__alt_data_end+0xfffd1058>
   430a0:	d9002e17 	ldw	r4,184(sp)
   430a4:	d9402a17 	ldw	r5,168(sp)
   430a8:	002d883a 	mov	r22,zero
   430ac:	20800104 	addi	r2,r4,4
   430b0:	25000017 	ldw	r20,0(r4)
   430b4:	283e7d0e 	bge	r5,zero,42aac <__alt_data_end+0xfffd0aac>
   430b8:	003eda06 	br	42c24 <__alt_data_end+0xfffd0c24>
   430bc:	d9002e17 	ldw	r4,184(sp)
   430c0:	d9402a17 	ldw	r5,168(sp)
   430c4:	002d883a 	mov	r22,zero
   430c8:	20800104 	addi	r2,r4,4
   430cc:	25000017 	ldw	r20,0(r4)
   430d0:	283e2d0e 	bge	r5,zero,42988 <__alt_data_end+0xfffd0988>
   430d4:	003f6b06 	br	42e84 <__alt_data_end+0xfffd0e84>
   430d8:	d8c02e15 	stw	r3,184(sp)
   430dc:	0039883a 	mov	fp,zero
   430e0:	003ed206 	br	42c2c <__alt_data_end+0xfffd0c2c>
   430e4:	bc400043 	ldbu	r17,1(r23)
   430e8:	84000814 	ori	r16,r16,32
   430ec:	bdc00044 	addi	r23,r23,1
   430f0:	8c403fcc 	andi	r17,r17,255
   430f4:	8c40201c 	xori	r17,r17,128
   430f8:	8c7fe004 	addi	r17,r17,-128
   430fc:	0039e906 	br	418a4 <__alt_data_end+0xfffcf8a4>
   43100:	d9402d17 	ldw	r5,180(sp)
   43104:	d9801e04 	addi	r6,sp,120
   43108:	9809883a 	mov	r4,r19
   4310c:	004b2580 	call	4b258 <__ssprint_r>
   43110:	103a761e 	bne	r2,zero,41aec <__alt_data_end+0xfffcfaec>
   43114:	d8c02017 	ldw	r3,128(sp)
   43118:	da000404 	addi	r8,sp,16
   4311c:	003d4a06 	br	42648 <__alt_data_end+0xfffd0648>
   43120:	d9002a17 	ldw	r4,168(sp)
   43124:	05bff7c4 	movi	r22,-33
   43128:	00bfffc4 	movi	r2,-1
   4312c:	8dac703a 	and	r22,r17,r22
   43130:	20806a26 	beq	r4,r2,432dc <___svfprintf_internal_r+0x1b8c>
   43134:	008011c4 	movi	r2,71
   43138:	b0813726 	beq	r22,r2,43618 <___svfprintf_internal_r+0x1ec8>
   4313c:	d9003717 	ldw	r4,220(sp)
   43140:	90c04014 	ori	r3,r18,256
   43144:	d8c02c15 	stw	r3,176(sp)
   43148:	20015d16 	blt	r4,zero,436c0 <___svfprintf_internal_r+0x1f70>
   4314c:	dd003717 	ldw	r20,220(sp)
   43150:	d8002905 	stb	zero,164(sp)
   43154:	00801984 	movi	r2,102
   43158:	88814026 	beq	r17,r2,4365c <___svfprintf_internal_r+0x1f0c>
   4315c:	00801184 	movi	r2,70
   43160:	88817126 	beq	r17,r2,43728 <___svfprintf_internal_r+0x1fd8>
   43164:	00801144 	movi	r2,69
   43168:	b0816226 	beq	r22,r2,436f4 <___svfprintf_internal_r+0x1fa4>
   4316c:	d8c02a17 	ldw	r3,168(sp)
   43170:	d8802104 	addi	r2,sp,132
   43174:	d8800315 	stw	r2,12(sp)
   43178:	d9403617 	ldw	r5,216(sp)
   4317c:	d8802504 	addi	r2,sp,148
   43180:	d8800215 	stw	r2,8(sp)
   43184:	d8802604 	addi	r2,sp,152
   43188:	d8c00015 	stw	r3,0(sp)
   4318c:	d8800115 	stw	r2,4(sp)
   43190:	01c00084 	movi	r7,2
   43194:	a00d883a 	mov	r6,r20
   43198:	9809883a 	mov	r4,r19
   4319c:	d8c03d15 	stw	r3,244(sp)
   431a0:	da003e15 	stw	r8,248(sp)
   431a4:	004613c0 	call	4613c <_dtoa_r>
   431a8:	1021883a 	mov	r16,r2
   431ac:	008019c4 	movi	r2,103
   431b0:	d8c03d17 	ldw	r3,244(sp)
   431b4:	da003e17 	ldw	r8,248(sp)
   431b8:	8880e726 	beq	r17,r2,43558 <___svfprintf_internal_r+0x1e08>
   431bc:	008011c4 	movi	r2,71
   431c0:	8880d426 	beq	r17,r2,43514 <___svfprintf_internal_r+0x1dc4>
   431c4:	80f9883a 	add	fp,r16,r3
   431c8:	d9003617 	ldw	r4,216(sp)
   431cc:	000d883a 	mov	r6,zero
   431d0:	000f883a 	mov	r7,zero
   431d4:	a00b883a 	mov	r5,r20
   431d8:	da003e15 	stw	r8,248(sp)
   431dc:	00506480 	call	50648 <__eqdf2>
   431e0:	da003e17 	ldw	r8,248(sp)
   431e4:	1000e426 	beq	r2,zero,43578 <___svfprintf_internal_r+0x1e28>
   431e8:	d8802117 	ldw	r2,132(sp)
   431ec:	1700062e 	bgeu	r2,fp,43208 <___svfprintf_internal_r+0x1ab8>
   431f0:	01000c04 	movi	r4,48
   431f4:	10c00044 	addi	r3,r2,1
   431f8:	d8c02115 	stw	r3,132(sp)
   431fc:	11000005 	stb	r4,0(r2)
   43200:	d8802117 	ldw	r2,132(sp)
   43204:	173ffb36 	bltu	r2,fp,431f4 <__alt_data_end+0xfffd11f4>
   43208:	1405c83a 	sub	r2,r2,r16
   4320c:	d8803315 	stw	r2,204(sp)
   43210:	008011c4 	movi	r2,71
   43214:	b080c526 	beq	r22,r2,4352c <___svfprintf_internal_r+0x1ddc>
   43218:	00801944 	movi	r2,101
   4321c:	1441d80e 	bge	r2,r17,43980 <___svfprintf_internal_r+0x2230>
   43220:	d8c02617 	ldw	r3,152(sp)
   43224:	00801984 	movi	r2,102
   43228:	d8c03215 	stw	r3,200(sp)
   4322c:	88813426 	beq	r17,r2,43700 <___svfprintf_internal_r+0x1fb0>
   43230:	d8c03217 	ldw	r3,200(sp)
   43234:	d9003317 	ldw	r4,204(sp)
   43238:	19012516 	blt	r3,r4,436d0 <___svfprintf_internal_r+0x1f80>
   4323c:	9480004c 	andi	r18,r18,1
   43240:	9001841e 	bne	r18,zero,43854 <___svfprintf_internal_r+0x2104>
   43244:	1805883a 	mov	r2,r3
   43248:	1801cb16 	blt	r3,zero,43978 <___svfprintf_internal_r+0x2228>
   4324c:	d8c03217 	ldw	r3,200(sp)
   43250:	044019c4 	movi	r17,103
   43254:	d8c02b15 	stw	r3,172(sp)
   43258:	df002907 	ldb	fp,164(sp)
   4325c:	e000a61e 	bne	fp,zero,434f8 <___svfprintf_internal_r+0x1da8>
   43260:	df002783 	ldbu	fp,158(sp)
   43264:	d8802915 	stw	r2,164(sp)
   43268:	dc802c17 	ldw	r18,176(sp)
   4326c:	d8002a15 	stw	zero,168(sp)
   43270:	003af506 	br	41e48 <__alt_data_end+0xfffcfe48>
   43274:	04000174 	movhi	r16,5
   43278:	841a1f04 	addi	r16,r16,26748
   4327c:	003a7e06 	br	41c78 <__alt_data_end+0xfffcfc78>
   43280:	d9003917 	ldw	r4,228(sp)
   43284:	04001004 	movi	r16,64
   43288:	800b883a 	mov	r5,r16
   4328c:	0048b380 	call	48b38 <_malloc_r>
   43290:	d9002d17 	ldw	r4,180(sp)
   43294:	20800015 	stw	r2,0(r4)
   43298:	20800415 	stw	r2,16(r4)
   4329c:	1001d026 	beq	r2,zero,439e0 <___svfprintf_internal_r+0x2290>
   432a0:	d8802d17 	ldw	r2,180(sp)
   432a4:	14000515 	stw	r16,20(r2)
   432a8:	00394406 	br	417bc <__alt_data_end+0xfffcf7bc>
   432ac:	04000174 	movhi	r16,5
   432b0:	841a2104 	addi	r16,r16,26756
   432b4:	003ee106 	br	42e3c <__alt_data_end+0xfffd0e3c>
   432b8:	d9402d17 	ldw	r5,180(sp)
   432bc:	d9801e04 	addi	r6,sp,120
   432c0:	9809883a 	mov	r4,r19
   432c4:	004b2580 	call	4b258 <__ssprint_r>
   432c8:	103a081e 	bne	r2,zero,41aec <__alt_data_end+0xfffcfaec>
   432cc:	dc402617 	ldw	r17,152(sp)
   432d0:	d8c02017 	ldw	r3,128(sp)
   432d4:	da000404 	addi	r8,sp,16
   432d8:	003f4306 	br	42fe8 <__alt_data_end+0xfffd0fe8>
   432dc:	01400184 	movi	r5,6
   432e0:	d9402a15 	stw	r5,168(sp)
   432e4:	003f9506 	br	4313c <__alt_data_end+0xfffd113c>
   432e8:	d8c02e17 	ldw	r3,184(sp)
   432ec:	1d000017 	ldw	r20,0(r3)
   432f0:	18c00104 	addi	r3,r3,4
   432f4:	d8c02e15 	stw	r3,184(sp)
   432f8:	a02dd7fa 	srai	r22,r20,31
   432fc:	b005883a 	mov	r2,r22
   43300:	003a7606 	br	41cdc <__alt_data_end+0xfffcfcdc>
   43304:	d9002e17 	ldw	r4,184(sp)
   43308:	002d883a 	mov	r22,zero
   4330c:	25000017 	ldw	r20,0(r4)
   43310:	21000104 	addi	r4,r4,4
   43314:	d9002e15 	stw	r4,184(sp)
   43318:	003bdd06 	br	42290 <__alt_data_end+0xfffd0290>
   4331c:	9480100c 	andi	r18,r18,64
   43320:	90006e26 	beq	r18,zero,434dc <___svfprintf_internal_r+0x1d8c>
   43324:	d9402e17 	ldw	r5,184(sp)
   43328:	d8c02f17 	ldw	r3,188(sp)
   4332c:	28800017 	ldw	r2,0(r5)
   43330:	29400104 	addi	r5,r5,4
   43334:	d9402e15 	stw	r5,184(sp)
   43338:	10c0000d 	sth	r3,0(r2)
   4333c:	00392f06 	br	417fc <__alt_data_end+0xfffcf7fc>
   43340:	d9402d17 	ldw	r5,180(sp)
   43344:	d9801e04 	addi	r6,sp,120
   43348:	9809883a 	mov	r4,r19
   4334c:	004b2580 	call	4b258 <__ssprint_r>
   43350:	1039e61e 	bne	r2,zero,41aec <__alt_data_end+0xfffcfaec>
   43354:	d8c02017 	ldw	r3,128(sp)
   43358:	d8801f17 	ldw	r2,124(sp)
   4335c:	da000404 	addi	r8,sp,16
   43360:	d9403317 	ldw	r5,204(sp)
   43364:	10800044 	addi	r2,r2,1
   43368:	44000015 	stw	r16,0(r8)
   4336c:	28c7883a 	add	r3,r5,r3
   43370:	003b5506 	br	420c8 <__alt_data_end+0xfffd00c8>
   43374:	8009883a 	mov	r4,r16
   43378:	df003e15 	stw	fp,248(sp)
   4337c:	00416b80 	call	416b8 <strlen>
   43380:	d8802b15 	stw	r2,172(sp)
   43384:	da003e17 	ldw	r8,248(sp)
   43388:	103c160e 	bge	r2,zero,423e4 <__alt_data_end+0xfffd03e4>
   4338c:	0005883a 	mov	r2,zero
   43390:	003c1406 	br	423e4 <__alt_data_end+0xfffd03e4>
   43394:	00bfffc4 	movi	r2,-1
   43398:	0039d906 	br	41b00 <__alt_data_end+0xfffcfb00>
   4339c:	01000174 	movhi	r4,5
   433a0:	211a3384 	addi	r4,r4,26830
   433a4:	d9003515 	stw	r4,212(sp)
   433a8:	003ae406 	br	41f3c <__alt_data_end+0xfffcff3c>
   433ac:	013fffc4 	movi	r4,-1
   433b0:	0039fa06 	br	41b9c <__alt_data_end+0xfffcfb9c>
   433b4:	d9402d17 	ldw	r5,180(sp)
   433b8:	d9801e04 	addi	r6,sp,120
   433bc:	9809883a 	mov	r4,r19
   433c0:	004b2580 	call	4b258 <__ssprint_r>
   433c4:	1039c91e 	bne	r2,zero,41aec <__alt_data_end+0xfffcfaec>
   433c8:	d8c02017 	ldw	r3,128(sp)
   433cc:	da000404 	addi	r8,sp,16
   433d0:	003d8406 	br	429e4 <__alt_data_end+0xfffd09e4>
   433d4:	0023883a 	mov	r17,zero
   433d8:	003d8306 	br	429e8 <__alt_data_end+0xfffd09e8>
   433dc:	01000174 	movhi	r4,5
   433e0:	211a2f84 	addi	r4,r4,26814
   433e4:	d9002c15 	stw	r4,176(sp)
   433e8:	d9002c17 	ldw	r4,176(sp)
   433ec:	1c47883a 	add	r3,r3,r17
   433f0:	10800044 	addi	r2,r2,1
   433f4:	41000015 	stw	r4,0(r8)
   433f8:	44400115 	stw	r17,4(r8)
   433fc:	d8c02015 	stw	r3,128(sp)
   43400:	d8801f15 	stw	r2,124(sp)
   43404:	010001c4 	movi	r4,7
   43408:	20bfcd16 	blt	r4,r2,43340 <__alt_data_end+0xfffd1340>
   4340c:	42000204 	addi	r8,r8,8
   43410:	003fd306 	br	43360 <__alt_data_end+0xfffd1360>
   43414:	d9402d17 	ldw	r5,180(sp)
   43418:	d9801e04 	addi	r6,sp,120
   4341c:	9809883a 	mov	r4,r19
   43420:	004b2580 	call	4b258 <__ssprint_r>
   43424:	1039b11e 	bne	r2,zero,41aec <__alt_data_end+0xfffcfaec>
   43428:	d8802617 	ldw	r2,152(sp)
   4342c:	d8c02017 	ldw	r3,128(sp)
   43430:	da000404 	addi	r8,sp,16
   43434:	003e1c06 	br	42ca8 <__alt_data_end+0xfffd0ca8>
   43438:	d8802a17 	ldw	r2,168(sp)
   4343c:	00c00184 	movi	r3,6
   43440:	1880012e 	bgeu	r3,r2,43448 <___svfprintf_internal_r+0x1cf8>
   43444:	1805883a 	mov	r2,r3
   43448:	d8802b15 	stw	r2,172(sp)
   4344c:	1000f316 	blt	r2,zero,4381c <___svfprintf_internal_r+0x20cc>
   43450:	04000174 	movhi	r16,5
   43454:	d8802915 	stw	r2,164(sp)
   43458:	dd002e15 	stw	r20,184(sp)
   4345c:	d8002a15 	stw	zero,168(sp)
   43460:	d8003215 	stw	zero,200(sp)
   43464:	841a2d04 	addi	r16,r16,26804
   43468:	0039883a 	mov	fp,zero
   4346c:	003a7d06 	br	41e64 <__alt_data_end+0xfffcfe64>
   43470:	01000174 	movhi	r4,5
   43474:	211a3384 	addi	r4,r4,26830
   43478:	d9003515 	stw	r4,212(sp)
   4347c:	003b3d06 	br	42174 <__alt_data_end+0xfffd0174>
   43480:	d9402d17 	ldw	r5,180(sp)
   43484:	d9801e04 	addi	r6,sp,120
   43488:	9809883a 	mov	r4,r19
   4348c:	004b2580 	call	4b258 <__ssprint_r>
   43490:	1039961e 	bne	r2,zero,41aec <__alt_data_end+0xfffcfaec>
   43494:	d8802617 	ldw	r2,152(sp)
   43498:	d9403317 	ldw	r5,204(sp)
   4349c:	d8c02017 	ldw	r3,128(sp)
   434a0:	da000404 	addi	r8,sp,16
   434a4:	2885c83a 	sub	r2,r5,r2
   434a8:	003e1006 	br	42cec <__alt_data_end+0xfffd0cec>
   434ac:	00800044 	movi	r2,1
   434b0:	10803fcc 	andi	r2,r2,255
   434b4:	00c00044 	movi	r3,1
   434b8:	10fa1026 	beq	r2,r3,41cfc <__alt_data_end+0xfffcfcfc>
   434bc:	00c00084 	movi	r3,2
   434c0:	10fb8226 	beq	r2,r3,422cc <__alt_data_end+0xfffd02cc>
   434c4:	003a4206 	br	41dd0 <__alt_data_end+0xfffcfdd0>
   434c8:	0021883a 	mov	r16,zero
   434cc:	003e0806 	br	42cf0 <__alt_data_end+0xfffd0cf0>
   434d0:	07000b44 	movi	fp,45
   434d4:	df002785 	stb	fp,158(sp)
   434d8:	0039e306 	br	41c68 <__alt_data_end+0xfffcfc68>
   434dc:	d9002e17 	ldw	r4,184(sp)
   434e0:	d9402f17 	ldw	r5,188(sp)
   434e4:	20800017 	ldw	r2,0(r4)
   434e8:	21000104 	addi	r4,r4,4
   434ec:	d9002e15 	stw	r4,184(sp)
   434f0:	11400015 	stw	r5,0(r2)
   434f4:	0038c106 	br	417fc <__alt_data_end+0xfffcf7fc>
   434f8:	00c00b44 	movi	r3,45
   434fc:	d8c02785 	stb	r3,158(sp)
   43500:	d8802915 	stw	r2,164(sp)
   43504:	dc802c17 	ldw	r18,176(sp)
   43508:	d8002a15 	stw	zero,168(sp)
   4350c:	07000b44 	movi	fp,45
   43510:	003a5106 	br	41e58 <__alt_data_end+0xfffcfe58>
   43514:	9080004c 	andi	r2,r18,1
   43518:	1000941e 	bne	r2,zero,4376c <___svfprintf_internal_r+0x201c>
   4351c:	d8802117 	ldw	r2,132(sp)
   43520:	1405c83a 	sub	r2,r2,r16
   43524:	d8803315 	stw	r2,204(sp)
   43528:	b441151e 	bne	r22,r17,43980 <___svfprintf_internal_r+0x2230>
   4352c:	dd802617 	ldw	r22,152(sp)
   43530:	00bfff44 	movi	r2,-3
   43534:	b0801a16 	blt	r22,r2,435a0 <___svfprintf_internal_r+0x1e50>
   43538:	d9402a17 	ldw	r5,168(sp)
   4353c:	2d801816 	blt	r5,r22,435a0 <___svfprintf_internal_r+0x1e50>
   43540:	dd803215 	stw	r22,200(sp)
   43544:	003f3a06 	br	43230 <__alt_data_end+0xfffd1230>
   43548:	1025883a 	mov	r18,r2
   4354c:	0039883a 	mov	fp,zero
   43550:	00800084 	movi	r2,2
   43554:	003fd606 	br	434b0 <__alt_data_end+0xfffd14b0>
   43558:	9080004c 	andi	r2,r18,1
   4355c:	103f191e 	bne	r2,zero,431c4 <__alt_data_end+0xfffd11c4>
   43560:	d8802117 	ldw	r2,132(sp)
   43564:	003f2806 	br	43208 <__alt_data_end+0xfffd1208>
   43568:	01000174 	movhi	r4,5
   4356c:	211a2f84 	addi	r4,r4,26814
   43570:	d9002c15 	stw	r4,176(sp)
   43574:	003c7c06 	br	42768 <__alt_data_end+0xfffd0768>
   43578:	e005883a 	mov	r2,fp
   4357c:	003f2206 	br	43208 <__alt_data_end+0xfffd1208>
   43580:	d9002a17 	ldw	r4,168(sp)
   43584:	df002783 	ldbu	fp,158(sp)
   43588:	dd002e15 	stw	r20,184(sp)
   4358c:	d9002915 	stw	r4,164(sp)
   43590:	d9002b15 	stw	r4,172(sp)
   43594:	d8002a15 	stw	zero,168(sp)
   43598:	d8003215 	stw	zero,200(sp)
   4359c:	003a2a06 	br	41e48 <__alt_data_end+0xfffcfe48>
   435a0:	8c7fff84 	addi	r17,r17,-2
   435a4:	b5bfffc4 	addi	r22,r22,-1
   435a8:	dd802615 	stw	r22,152(sp)
   435ac:	dc4022c5 	stb	r17,139(sp)
   435b0:	b000c316 	blt	r22,zero,438c0 <___svfprintf_internal_r+0x2170>
   435b4:	00800ac4 	movi	r2,43
   435b8:	d8802305 	stb	r2,140(sp)
   435bc:	00800244 	movi	r2,9
   435c0:	15806e16 	blt	r2,r22,4377c <___svfprintf_internal_r+0x202c>
   435c4:	00800c04 	movi	r2,48
   435c8:	b5800c04 	addi	r22,r22,48
   435cc:	d8802345 	stb	r2,141(sp)
   435d0:	dd802385 	stb	r22,142(sp)
   435d4:	d88023c4 	addi	r2,sp,143
   435d8:	df0022c4 	addi	fp,sp,139
   435dc:	d8c03317 	ldw	r3,204(sp)
   435e0:	1739c83a 	sub	fp,r2,fp
   435e4:	d9003317 	ldw	r4,204(sp)
   435e8:	e0c7883a 	add	r3,fp,r3
   435ec:	df003b15 	stw	fp,236(sp)
   435f0:	d8c02b15 	stw	r3,172(sp)
   435f4:	00800044 	movi	r2,1
   435f8:	1100b70e 	bge	r2,r4,438d8 <___svfprintf_internal_r+0x2188>
   435fc:	d8c02b17 	ldw	r3,172(sp)
   43600:	18c00044 	addi	r3,r3,1
   43604:	d8c02b15 	stw	r3,172(sp)
   43608:	1805883a 	mov	r2,r3
   4360c:	1800b016 	blt	r3,zero,438d0 <___svfprintf_internal_r+0x2180>
   43610:	d8003215 	stw	zero,200(sp)
   43614:	003f1006 	br	43258 <__alt_data_end+0xfffd1258>
   43618:	d8802a17 	ldw	r2,168(sp)
   4361c:	103ec71e 	bne	r2,zero,4313c <__alt_data_end+0xfffd113c>
   43620:	dc002a15 	stw	r16,168(sp)
   43624:	003ec506 	br	4313c <__alt_data_end+0xfffd113c>
   43628:	d9402d17 	ldw	r5,180(sp)
   4362c:	d9801e04 	addi	r6,sp,120
   43630:	9809883a 	mov	r4,r19
   43634:	004b2580 	call	4b258 <__ssprint_r>
   43638:	10392c1e 	bne	r2,zero,41aec <__alt_data_end+0xfffcfaec>
   4363c:	dc402617 	ldw	r17,152(sp)
   43640:	d8c02017 	ldw	r3,128(sp)
   43644:	d8801f17 	ldw	r2,124(sp)
   43648:	da000404 	addi	r8,sp,16
   4364c:	003e7706 	br	4302c <__alt_data_end+0xfffd102c>
   43650:	182f883a 	mov	r23,r3
   43654:	d8002a15 	stw	zero,168(sp)
   43658:	00389306 	br	418a8 <__alt_data_end+0xfffcf8a8>
   4365c:	d8c02a17 	ldw	r3,168(sp)
   43660:	d8802104 	addi	r2,sp,132
   43664:	d8800315 	stw	r2,12(sp)
   43668:	d9403617 	ldw	r5,216(sp)
   4366c:	d8802504 	addi	r2,sp,148
   43670:	d8800215 	stw	r2,8(sp)
   43674:	d8802604 	addi	r2,sp,152
   43678:	d8c00015 	stw	r3,0(sp)
   4367c:	9809883a 	mov	r4,r19
   43680:	d8800115 	stw	r2,4(sp)
   43684:	01c000c4 	movi	r7,3
   43688:	a00d883a 	mov	r6,r20
   4368c:	da003e15 	stw	r8,248(sp)
   43690:	004613c0 	call	4613c <_dtoa_r>
   43694:	d9002a17 	ldw	r4,168(sp)
   43698:	da003e17 	ldw	r8,248(sp)
   4369c:	1021883a 	mov	r16,r2
   436a0:	1139883a 	add	fp,r2,r4
   436a4:	2007883a 	mov	r3,r4
   436a8:	81000007 	ldb	r4,0(r16)
   436ac:	00800c04 	movi	r2,48
   436b0:	20806f26 	beq	r4,r2,43870 <___svfprintf_internal_r+0x2120>
   436b4:	d8c02617 	ldw	r3,152(sp)
   436b8:	e0f9883a 	add	fp,fp,r3
   436bc:	003ec206 	br	431c8 <__alt_data_end+0xfffd11c8>
   436c0:	00c00b44 	movi	r3,45
   436c4:	2520003c 	xorhi	r20,r4,32768
   436c8:	d8c02905 	stb	r3,164(sp)
   436cc:	003ea106 	br	43154 <__alt_data_end+0xfffd1154>
   436d0:	d8c03217 	ldw	r3,200(sp)
   436d4:	00c0890e 	bge	zero,r3,438fc <___svfprintf_internal_r+0x21ac>
   436d8:	00800044 	movi	r2,1
   436dc:	d9003317 	ldw	r4,204(sp)
   436e0:	1105883a 	add	r2,r2,r4
   436e4:	d8802b15 	stw	r2,172(sp)
   436e8:	10005f16 	blt	r2,zero,43868 <___svfprintf_internal_r+0x2118>
   436ec:	044019c4 	movi	r17,103
   436f0:	003ed906 	br	43258 <__alt_data_end+0xfffd1258>
   436f4:	d9002a17 	ldw	r4,168(sp)
   436f8:	20c00044 	addi	r3,r4,1
   436fc:	003e9c06 	br	43170 <__alt_data_end+0xfffd1170>
   43700:	d9002a17 	ldw	r4,168(sp)
   43704:	00c0680e 	bge	zero,r3,438a8 <___svfprintf_internal_r+0x2158>
   43708:	2000461e 	bne	r4,zero,43824 <___svfprintf_internal_r+0x20d4>
   4370c:	9480004c 	andi	r18,r18,1
   43710:	9000441e 	bne	r18,zero,43824 <___svfprintf_internal_r+0x20d4>
   43714:	1805883a 	mov	r2,r3
   43718:	1800a116 	blt	r3,zero,439a0 <___svfprintf_internal_r+0x2250>
   4371c:	d8c03217 	ldw	r3,200(sp)
   43720:	d8c02b15 	stw	r3,172(sp)
   43724:	003ecc06 	br	43258 <__alt_data_end+0xfffd1258>
   43728:	d9402a17 	ldw	r5,168(sp)
   4372c:	d8802104 	addi	r2,sp,132
   43730:	d8800315 	stw	r2,12(sp)
   43734:	d9400015 	stw	r5,0(sp)
   43738:	d8802504 	addi	r2,sp,148
   4373c:	d9403617 	ldw	r5,216(sp)
   43740:	d8800215 	stw	r2,8(sp)
   43744:	d8802604 	addi	r2,sp,152
   43748:	d8800115 	stw	r2,4(sp)
   4374c:	01c000c4 	movi	r7,3
   43750:	a00d883a 	mov	r6,r20
   43754:	9809883a 	mov	r4,r19
   43758:	da003e15 	stw	r8,248(sp)
   4375c:	004613c0 	call	4613c <_dtoa_r>
   43760:	d8c02a17 	ldw	r3,168(sp)
   43764:	da003e17 	ldw	r8,248(sp)
   43768:	1021883a 	mov	r16,r2
   4376c:	00801184 	movi	r2,70
   43770:	80f9883a 	add	fp,r16,r3
   43774:	88bfcc26 	beq	r17,r2,436a8 <__alt_data_end+0xfffd16a8>
   43778:	003e9306 	br	431c8 <__alt_data_end+0xfffd11c8>
   4377c:	df0022c4 	addi	fp,sp,139
   43780:	dc002a15 	stw	r16,168(sp)
   43784:	9829883a 	mov	r20,r19
   43788:	e021883a 	mov	r16,fp
   4378c:	4027883a 	mov	r19,r8
   43790:	b009883a 	mov	r4,r22
   43794:	01400284 	movi	r5,10
   43798:	00407c40 	call	407c4 <__modsi3>
   4379c:	10800c04 	addi	r2,r2,48
   437a0:	843fffc4 	addi	r16,r16,-1
   437a4:	b009883a 	mov	r4,r22
   437a8:	01400284 	movi	r5,10
   437ac:	80800005 	stb	r2,0(r16)
   437b0:	00407400 	call	40740 <__divsi3>
   437b4:	102d883a 	mov	r22,r2
   437b8:	00800244 	movi	r2,9
   437bc:	15bff416 	blt	r2,r22,43790 <__alt_data_end+0xfffd1790>
   437c0:	9811883a 	mov	r8,r19
   437c4:	b0800c04 	addi	r2,r22,48
   437c8:	a027883a 	mov	r19,r20
   437cc:	8029883a 	mov	r20,r16
   437d0:	a17fffc4 	addi	r5,r20,-1
   437d4:	a0bfffc5 	stb	r2,-1(r20)
   437d8:	dc002a17 	ldw	r16,168(sp)
   437dc:	2f00782e 	bgeu	r5,fp,439c0 <___svfprintf_internal_r+0x2270>
   437e0:	d9c02384 	addi	r7,sp,142
   437e4:	3d0fc83a 	sub	r7,r7,r20
   437e8:	d9002344 	addi	r4,sp,141
   437ec:	e1cf883a 	add	r7,fp,r7
   437f0:	00000106 	br	437f8 <___svfprintf_internal_r+0x20a8>
   437f4:	28800003 	ldbu	r2,0(r5)
   437f8:	20800005 	stb	r2,0(r4)
   437fc:	21000044 	addi	r4,r4,1
   43800:	29400044 	addi	r5,r5,1
   43804:	21fffb1e 	bne	r4,r7,437f4 <__alt_data_end+0xfffd17f4>
   43808:	d8802304 	addi	r2,sp,140
   4380c:	1505c83a 	sub	r2,r2,r20
   43810:	d8c02344 	addi	r3,sp,141
   43814:	1885883a 	add	r2,r3,r2
   43818:	003f7006 	br	435dc <__alt_data_end+0xfffd15dc>
   4381c:	0005883a 	mov	r2,zero
   43820:	003f0b06 	br	43450 <__alt_data_end+0xfffd1450>
   43824:	d9002a17 	ldw	r4,168(sp)
   43828:	d8c03217 	ldw	r3,200(sp)
   4382c:	20800044 	addi	r2,r4,1
   43830:	1885883a 	add	r2,r3,r2
   43834:	d8802b15 	stw	r2,172(sp)
   43838:	103e870e 	bge	r2,zero,43258 <__alt_data_end+0xfffd1258>
   4383c:	0005883a 	mov	r2,zero
   43840:	003e8506 	br	43258 <__alt_data_end+0xfffd1258>
   43844:	01000174 	movhi	r4,5
   43848:	211a2f84 	addi	r4,r4,26814
   4384c:	d9002c15 	stw	r4,176(sp)
   43850:	003cc506 	br	42b68 <__alt_data_end+0xfffd0b68>
   43854:	d8c03217 	ldw	r3,200(sp)
   43858:	18c00044 	addi	r3,r3,1
   4385c:	d8c02b15 	stw	r3,172(sp)
   43860:	1805883a 	mov	r2,r3
   43864:	183fa10e 	bge	r3,zero,436ec <__alt_data_end+0xfffd16ec>
   43868:	0005883a 	mov	r2,zero
   4386c:	003f9f06 	br	436ec <__alt_data_end+0xfffd16ec>
   43870:	d9003617 	ldw	r4,216(sp)
   43874:	000d883a 	mov	r6,zero
   43878:	000f883a 	mov	r7,zero
   4387c:	a00b883a 	mov	r5,r20
   43880:	d8c03d15 	stw	r3,244(sp)
   43884:	da003e15 	stw	r8,248(sp)
   43888:	00506480 	call	50648 <__eqdf2>
   4388c:	d8c03d17 	ldw	r3,244(sp)
   43890:	da003e17 	ldw	r8,248(sp)
   43894:	103f8726 	beq	r2,zero,436b4 <__alt_data_end+0xfffd16b4>
   43898:	00800044 	movi	r2,1
   4389c:	10c7c83a 	sub	r3,r2,r3
   438a0:	d8c02615 	stw	r3,152(sp)
   438a4:	003f8406 	br	436b8 <__alt_data_end+0xfffd16b8>
   438a8:	20000e1e 	bne	r4,zero,438e4 <___svfprintf_internal_r+0x2194>
   438ac:	9480004c 	andi	r18,r18,1
   438b0:	90000c1e 	bne	r18,zero,438e4 <___svfprintf_internal_r+0x2194>
   438b4:	00800044 	movi	r2,1
   438b8:	d8802b15 	stw	r2,172(sp)
   438bc:	003e6606 	br	43258 <__alt_data_end+0xfffd1258>
   438c0:	00800b44 	movi	r2,45
   438c4:	05adc83a 	sub	r22,zero,r22
   438c8:	d8802305 	stb	r2,140(sp)
   438cc:	003f3b06 	br	435bc <__alt_data_end+0xfffd15bc>
   438d0:	0005883a 	mov	r2,zero
   438d4:	003f4e06 	br	43610 <__alt_data_end+0xfffd1610>
   438d8:	90a4703a 	and	r18,r18,r2
   438dc:	903f4a26 	beq	r18,zero,43608 <__alt_data_end+0xfffd1608>
   438e0:	003f4606 	br	435fc <__alt_data_end+0xfffd15fc>
   438e4:	d8c02a17 	ldw	r3,168(sp)
   438e8:	18c00084 	addi	r3,r3,2
   438ec:	d8c02b15 	stw	r3,172(sp)
   438f0:	1805883a 	mov	r2,r3
   438f4:	183e580e 	bge	r3,zero,43258 <__alt_data_end+0xfffd1258>
   438f8:	003fd006 	br	4383c <__alt_data_end+0xfffd183c>
   438fc:	00800084 	movi	r2,2
   43900:	10c5c83a 	sub	r2,r2,r3
   43904:	003f7506 	br	436dc <__alt_data_end+0xfffd16dc>
   43908:	d9402e17 	ldw	r5,184(sp)
   4390c:	d9002e17 	ldw	r4,184(sp)
   43910:	bc400043 	ldbu	r17,1(r23)
   43914:	29400017 	ldw	r5,0(r5)
   43918:	20800104 	addi	r2,r4,4
   4391c:	d8802e15 	stw	r2,184(sp)
   43920:	d9402a15 	stw	r5,168(sp)
   43924:	182f883a 	mov	r23,r3
   43928:	283df10e 	bge	r5,zero,430f0 <__alt_data_end+0xfffd10f0>
   4392c:	8c403fcc 	andi	r17,r17,255
   43930:	017fffc4 	movi	r5,-1
   43934:	8c40201c 	xori	r17,r17,128
   43938:	d9402a15 	stw	r5,168(sp)
   4393c:	8c7fe004 	addi	r17,r17,-128
   43940:	0037d806 	br	418a4 <__alt_data_end+0xfffcf8a4>
   43944:	9080004c 	andi	r2,r18,1
   43948:	0039883a 	mov	fp,zero
   4394c:	10000726 	beq	r2,zero,4396c <___svfprintf_internal_r+0x221c>
   43950:	d8c02817 	ldw	r3,160(sp)
   43954:	dc001dc4 	addi	r16,sp,119
   43958:	00800c04 	movi	r2,48
   4395c:	1c07c83a 	sub	r3,r3,r16
   43960:	d8801dc5 	stb	r2,119(sp)
   43964:	d8c02b15 	stw	r3,172(sp)
   43968:	00393106 	br	41e30 <__alt_data_end+0xfffcfe30>
   4396c:	d8002b15 	stw	zero,172(sp)
   43970:	dc001e04 	addi	r16,sp,120
   43974:	00392e06 	br	41e30 <__alt_data_end+0xfffcfe30>
   43978:	0005883a 	mov	r2,zero
   4397c:	003e3306 	br	4324c <__alt_data_end+0xfffd124c>
   43980:	dd802617 	ldw	r22,152(sp)
   43984:	003f0706 	br	435a4 <__alt_data_end+0xfffd15a4>
   43988:	d8c02b03 	ldbu	r3,172(sp)
   4398c:	d8c02785 	stb	r3,158(sp)
   43990:	003a3506 	br	42268 <__alt_data_end+0xfffd0268>
   43994:	d8c02b03 	ldbu	r3,172(sp)
   43998:	d8c02785 	stb	r3,158(sp)
   4399c:	003a1706 	br	421fc <__alt_data_end+0xfffd01fc>
   439a0:	0005883a 	mov	r2,zero
   439a4:	003f5d06 	br	4371c <__alt_data_end+0xfffd171c>
   439a8:	d8c02b03 	ldbu	r3,172(sp)
   439ac:	d8c02785 	stb	r3,158(sp)
   439b0:	0038f306 	br	41d80 <__alt_data_end+0xfffcfd80>
   439b4:	d8c02b03 	ldbu	r3,172(sp)
   439b8:	d8c02785 	stb	r3,158(sp)
   439bc:	0038be06 	br	41cb8 <__alt_data_end+0xfffcfcb8>
   439c0:	d8802344 	addi	r2,sp,141
   439c4:	003f0506 	br	435dc <__alt_data_end+0xfffd15dc>
   439c8:	d8c02b03 	ldbu	r3,172(sp)
   439cc:	d8c02785 	stb	r3,158(sp)
   439d0:	00388b06 	br	41c00 <__alt_data_end+0xfffcfc00>
   439d4:	d8c02b03 	ldbu	r3,172(sp)
   439d8:	d8c02785 	stb	r3,158(sp)
   439dc:	003ad706 	br	4253c <__alt_data_end+0xfffd053c>
   439e0:	d9403917 	ldw	r5,228(sp)
   439e4:	00800304 	movi	r2,12
   439e8:	28800015 	stw	r2,0(r5)
   439ec:	00bfffc4 	movi	r2,-1
   439f0:	00384306 	br	41b00 <__alt_data_end+0xfffcfb00>
   439f4:	d8c02b03 	ldbu	r3,172(sp)
   439f8:	d8c02785 	stb	r3,158(sp)
   439fc:	003ab606 	br	424d8 <__alt_data_end+0xfffd04d8>
   43a00:	d8c02b03 	ldbu	r3,172(sp)
   43a04:	d8c02785 	stb	r3,158(sp)
   43a08:	003a8906 	br	42430 <__alt_data_end+0xfffd0430>

00043a0c <___vfprintf_internal_r>:
   43a0c:	deffb804 	addi	sp,sp,-288
   43a10:	dfc04715 	stw	ra,284(sp)
   43a14:	ddc04515 	stw	r23,276(sp)
   43a18:	dd404315 	stw	r21,268(sp)
   43a1c:	d9002d15 	stw	r4,180(sp)
   43a20:	282f883a 	mov	r23,r5
   43a24:	302b883a 	mov	r21,r6
   43a28:	d9c02e15 	stw	r7,184(sp)
   43a2c:	df004615 	stw	fp,280(sp)
   43a30:	dd804415 	stw	r22,272(sp)
   43a34:	dd004215 	stw	r20,264(sp)
   43a38:	dcc04115 	stw	r19,260(sp)
   43a3c:	dc804015 	stw	r18,256(sp)
   43a40:	dc403f15 	stw	r17,252(sp)
   43a44:	dc003e15 	stw	r16,248(sp)
   43a48:	004894c0 	call	4894c <_localeconv_r>
   43a4c:	10800017 	ldw	r2,0(r2)
   43a50:	1009883a 	mov	r4,r2
   43a54:	d8803415 	stw	r2,208(sp)
   43a58:	00416b80 	call	416b8 <strlen>
   43a5c:	d8803715 	stw	r2,220(sp)
   43a60:	d8802d17 	ldw	r2,180(sp)
   43a64:	10000226 	beq	r2,zero,43a70 <___vfprintf_internal_r+0x64>
   43a68:	10800e17 	ldw	r2,56(r2)
   43a6c:	1000fb26 	beq	r2,zero,43e5c <___vfprintf_internal_r+0x450>
   43a70:	b880030b 	ldhu	r2,12(r23)
   43a74:	10c8000c 	andi	r3,r2,8192
   43a78:	1800061e 	bne	r3,zero,43a94 <___vfprintf_internal_r+0x88>
   43a7c:	b9001917 	ldw	r4,100(r23)
   43a80:	00f7ffc4 	movi	r3,-8193
   43a84:	10880014 	ori	r2,r2,8192
   43a88:	20c6703a 	and	r3,r4,r3
   43a8c:	b880030d 	sth	r2,12(r23)
   43a90:	b8c01915 	stw	r3,100(r23)
   43a94:	10c0020c 	andi	r3,r2,8
   43a98:	1800c326 	beq	r3,zero,43da8 <___vfprintf_internal_r+0x39c>
   43a9c:	b8c00417 	ldw	r3,16(r23)
   43aa0:	1800c126 	beq	r3,zero,43da8 <___vfprintf_internal_r+0x39c>
   43aa4:	1080068c 	andi	r2,r2,26
   43aa8:	00c00284 	movi	r3,10
   43aac:	10c0c626 	beq	r2,r3,43dc8 <___vfprintf_internal_r+0x3bc>
   43ab0:	d8c00404 	addi	r3,sp,16
   43ab4:	05000174 	movhi	r20,5
   43ab8:	d9001e04 	addi	r4,sp,120
   43abc:	a51a3784 	addi	r20,r20,26846
   43ac0:	d8c01e15 	stw	r3,120(sp)
   43ac4:	d8002015 	stw	zero,128(sp)
   43ac8:	d8001f15 	stw	zero,124(sp)
   43acc:	d8003315 	stw	zero,204(sp)
   43ad0:	d8003615 	stw	zero,216(sp)
   43ad4:	d8003815 	stw	zero,224(sp)
   43ad8:	1811883a 	mov	r8,r3
   43adc:	d8003915 	stw	zero,228(sp)
   43ae0:	d8003a15 	stw	zero,232(sp)
   43ae4:	d8002f15 	stw	zero,188(sp)
   43ae8:	d9002815 	stw	r4,160(sp)
   43aec:	a8800007 	ldb	r2,0(r21)
   43af0:	10028b26 	beq	r2,zero,44520 <___vfprintf_internal_r+0xb14>
   43af4:	00c00944 	movi	r3,37
   43af8:	a823883a 	mov	r17,r21
   43afc:	10c0021e 	bne	r2,r3,43b08 <___vfprintf_internal_r+0xfc>
   43b00:	00001406 	br	43b54 <___vfprintf_internal_r+0x148>
   43b04:	10c00326 	beq	r2,r3,43b14 <___vfprintf_internal_r+0x108>
   43b08:	8c400044 	addi	r17,r17,1
   43b0c:	88800007 	ldb	r2,0(r17)
   43b10:	103ffc1e 	bne	r2,zero,43b04 <__alt_data_end+0xfffd1b04>
   43b14:	8d61c83a 	sub	r16,r17,r21
   43b18:	80000e26 	beq	r16,zero,43b54 <___vfprintf_internal_r+0x148>
   43b1c:	d8c02017 	ldw	r3,128(sp)
   43b20:	d8801f17 	ldw	r2,124(sp)
   43b24:	45400015 	stw	r21,0(r8)
   43b28:	1c07883a 	add	r3,r3,r16
   43b2c:	10800044 	addi	r2,r2,1
   43b30:	d8c02015 	stw	r3,128(sp)
   43b34:	44000115 	stw	r16,4(r8)
   43b38:	d8801f15 	stw	r2,124(sp)
   43b3c:	00c001c4 	movi	r3,7
   43b40:	1880a916 	blt	r3,r2,43de8 <___vfprintf_internal_r+0x3dc>
   43b44:	42000204 	addi	r8,r8,8
   43b48:	d9402f17 	ldw	r5,188(sp)
   43b4c:	2c0b883a 	add	r5,r5,r16
   43b50:	d9402f15 	stw	r5,188(sp)
   43b54:	88800007 	ldb	r2,0(r17)
   43b58:	1000aa26 	beq	r2,zero,43e04 <___vfprintf_internal_r+0x3f8>
   43b5c:	8d400044 	addi	r21,r17,1
   43b60:	8c400047 	ldb	r17,1(r17)
   43b64:	0021883a 	mov	r16,zero
   43b68:	00bfffc4 	movi	r2,-1
   43b6c:	0025883a 	mov	r18,zero
   43b70:	dc002905 	stb	r16,164(sp)
   43b74:	d8002785 	stb	zero,158(sp)
   43b78:	d8002b05 	stb	zero,172(sp)
   43b7c:	d8802a15 	stw	r2,168(sp)
   43b80:	d8003115 	stw	zero,196(sp)
   43b84:	04c01604 	movi	r19,88
   43b88:	05800244 	movi	r22,9
   43b8c:	9021883a 	mov	r16,r18
   43b90:	4039883a 	mov	fp,r8
   43b94:	ad400044 	addi	r21,r21,1
   43b98:	88bff804 	addi	r2,r17,-32
   43b9c:	98833236 	bltu	r19,r2,44868 <___vfprintf_internal_r+0xe5c>
   43ba0:	100490ba 	slli	r2,r2,2
   43ba4:	00c00134 	movhi	r3,4
   43ba8:	18ceee04 	addi	r3,r3,15288
   43bac:	10c5883a 	add	r2,r2,r3
   43bb0:	10800017 	ldw	r2,0(r2)
   43bb4:	1000683a 	jmp	r2
   43bb8:	00044760 	cmpeqi	zero,zero,4381
   43bbc:	00044868 	cmpgeui	zero,zero,4385
   43bc0:	00044868 	cmpgeui	zero,zero,4385
   43bc4:	00044780 	call	4478 <__alt_mem_RAM-0x3bb88>
   43bc8:	00044868 	cmpgeui	zero,zero,4385
   43bcc:	00044868 	cmpgeui	zero,zero,4385
   43bd0:	00044868 	cmpgeui	zero,zero,4385
   43bd4:	00044868 	cmpgeui	zero,zero,4385
   43bd8:	00044868 	cmpgeui	zero,zero,4385
   43bdc:	00044868 	cmpgeui	zero,zero,4385
   43be0:	00043e68 	cmpgeui	zero,zero,4345
   43be4:	00044670 	cmpltui	zero,zero,4377
   43be8:	00044868 	cmpgeui	zero,zero,4385
   43bec:	00043d2c 	andhi	zero,zero,4340
   43bf0:	00043e8c 	andi	zero,zero,4346
   43bf4:	00044868 	cmpgeui	zero,zero,4385
   43bf8:	00043edc 	xori	zero,zero,4347
   43bfc:	00043ee8 	cmpgeui	zero,zero,4347
   43c00:	00043ee8 	cmpgeui	zero,zero,4347
   43c04:	00043ee8 	cmpgeui	zero,zero,4347
   43c08:	00043ee8 	cmpgeui	zero,zero,4347
   43c0c:	00043ee8 	cmpgeui	zero,zero,4347
   43c10:	00043ee8 	cmpgeui	zero,zero,4347
   43c14:	00043ee8 	cmpgeui	zero,zero,4347
   43c18:	00043ee8 	cmpgeui	zero,zero,4347
   43c1c:	00043ee8 	cmpgeui	zero,zero,4347
   43c20:	00044868 	cmpgeui	zero,zero,4385
   43c24:	00044868 	cmpgeui	zero,zero,4385
   43c28:	00044868 	cmpgeui	zero,zero,4385
   43c2c:	00044868 	cmpgeui	zero,zero,4385
   43c30:	00044868 	cmpgeui	zero,zero,4385
   43c34:	00044868 	cmpgeui	zero,zero,4385
   43c38:	00044868 	cmpgeui	zero,zero,4385
   43c3c:	00044868 	cmpgeui	zero,zero,4385
   43c40:	00044868 	cmpgeui	zero,zero,4385
   43c44:	00044868 	cmpgeui	zero,zero,4385
   43c48:	00043f24 	muli	zero,zero,4348
   43c4c:	00043fec 	andhi	zero,zero,4351
   43c50:	00044868 	cmpgeui	zero,zero,4385
   43c54:	00043fec 	andhi	zero,zero,4351
   43c58:	00044868 	cmpgeui	zero,zero,4385
   43c5c:	00044868 	cmpgeui	zero,zero,4385
   43c60:	00044868 	cmpgeui	zero,zero,4385
   43c64:	00044868 	cmpgeui	zero,zero,4385
   43c68:	00044098 	cmpnei	zero,zero,4354
   43c6c:	00044868 	cmpgeui	zero,zero,4385
   43c70:	00044868 	cmpgeui	zero,zero,4385
   43c74:	000440a4 	muli	zero,zero,4354
   43c78:	00044868 	cmpgeui	zero,zero,4385
   43c7c:	00044868 	cmpgeui	zero,zero,4385
   43c80:	00044868 	cmpgeui	zero,zero,4385
   43c84:	00044868 	cmpgeui	zero,zero,4385
   43c88:	00044868 	cmpgeui	zero,zero,4385
   43c8c:	00044528 	cmpgeui	zero,zero,4372
   43c90:	00044868 	cmpgeui	zero,zero,4385
   43c94:	00044868 	cmpgeui	zero,zero,4385
   43c98:	00044594 	movui	zero,4374
   43c9c:	00044868 	cmpgeui	zero,zero,4385
   43ca0:	00044868 	cmpgeui	zero,zero,4385
   43ca4:	00044868 	cmpgeui	zero,zero,4385
   43ca8:	00044868 	cmpgeui	zero,zero,4385
   43cac:	00044868 	cmpgeui	zero,zero,4385
   43cb0:	00044868 	cmpgeui	zero,zero,4385
   43cb4:	00044868 	cmpgeui	zero,zero,4385
   43cb8:	00044868 	cmpgeui	zero,zero,4385
   43cbc:	00044868 	cmpgeui	zero,zero,4385
   43cc0:	00044868 	cmpgeui	zero,zero,4385
   43cc4:	0004480c 	andi	zero,zero,4384
   43cc8:	0004478c 	andi	zero,zero,4382
   43ccc:	00043fec 	andhi	zero,zero,4351
   43cd0:	00043fec 	andhi	zero,zero,4351
   43cd4:	00043fec 	andhi	zero,zero,4351
   43cd8:	000447ac 	andhi	zero,zero,4382
   43cdc:	0004478c 	andi	zero,zero,4382
   43ce0:	00044868 	cmpgeui	zero,zero,4385
   43ce4:	00044868 	cmpgeui	zero,zero,4385
   43ce8:	000447b8 	rdprs	zero,zero,4382
   43cec:	00044868 	cmpgeui	zero,zero,4385
   43cf0:	000447cc 	andi	zero,zero,4383
   43cf4:	00044650 	cmplti	zero,zero,4377
   43cf8:	00043d38 	rdprs	zero,zero,4340
   43cfc:	00044688 	cmpgei	zero,zero,4378
   43d00:	00044868 	cmpgeui	zero,zero,4385
   43d04:	00044694 	movui	zero,4378
   43d08:	00044868 	cmpgeui	zero,zero,4385
   43d0c:	000446f8 	rdprs	zero,zero,4379
   43d10:	00044868 	cmpgeui	zero,zero,4385
   43d14:	00044868 	cmpgeui	zero,zero,4385
   43d18:	00044718 	cmpnei	zero,zero,4380
   43d1c:	d8c03117 	ldw	r3,196(sp)
   43d20:	d8802e15 	stw	r2,184(sp)
   43d24:	00c7c83a 	sub	r3,zero,r3
   43d28:	d8c03115 	stw	r3,196(sp)
   43d2c:	84000114 	ori	r16,r16,4
   43d30:	ac400007 	ldb	r17,0(r21)
   43d34:	003f9706 	br	43b94 <__alt_data_end+0xfffd1b94>
   43d38:	00800c04 	movi	r2,48
   43d3c:	d8802705 	stb	r2,156(sp)
   43d40:	00801e04 	movi	r2,120
   43d44:	d8802745 	stb	r2,157(sp)
   43d48:	d9002a17 	ldw	r4,168(sp)
   43d4c:	d8802e17 	ldw	r2,184(sp)
   43d50:	d8002785 	stb	zero,158(sp)
   43d54:	e011883a 	mov	r8,fp
   43d58:	10c00104 	addi	r3,r2,4
   43d5c:	14c00017 	ldw	r19,0(r2)
   43d60:	002d883a 	mov	r22,zero
   43d64:	80800094 	ori	r2,r16,2
   43d68:	2002ca16 	blt	r4,zero,44894 <___vfprintf_internal_r+0xe88>
   43d6c:	00bfdfc4 	movi	r2,-129
   43d70:	80a4703a 	and	r18,r16,r2
   43d74:	d8c02e15 	stw	r3,184(sp)
   43d78:	94800094 	ori	r18,r18,2
   43d7c:	9802b41e 	bne	r19,zero,44850 <___vfprintf_internal_r+0xe44>
   43d80:	01400174 	movhi	r5,5
   43d84:	295a2804 	addi	r5,r5,26784
   43d88:	d9403915 	stw	r5,228(sp)
   43d8c:	04401e04 	movi	r17,120
   43d90:	d8802a17 	ldw	r2,168(sp)
   43d94:	0039883a 	mov	fp,zero
   43d98:	1001fa26 	beq	r2,zero,44584 <___vfprintf_internal_r+0xb78>
   43d9c:	0027883a 	mov	r19,zero
   43da0:	002d883a 	mov	r22,zero
   43da4:	00021906 	br	4460c <___vfprintf_internal_r+0xc00>
   43da8:	d9002d17 	ldw	r4,180(sp)
   43dac:	b80b883a 	mov	r5,r23
   43db0:	0045dc00 	call	45dc0 <__swsetup_r>
   43db4:	1005dc1e 	bne	r2,zero,45528 <___vfprintf_internal_r+0x1b1c>
   43db8:	b880030b 	ldhu	r2,12(r23)
   43dbc:	00c00284 	movi	r3,10
   43dc0:	1080068c 	andi	r2,r2,26
   43dc4:	10ff3a1e 	bne	r2,r3,43ab0 <__alt_data_end+0xfffd1ab0>
   43dc8:	b880038f 	ldh	r2,14(r23)
   43dcc:	103f3816 	blt	r2,zero,43ab0 <__alt_data_end+0xfffd1ab0>
   43dd0:	d9c02e17 	ldw	r7,184(sp)
   43dd4:	d9002d17 	ldw	r4,180(sp)
   43dd8:	a80d883a 	mov	r6,r21
   43ddc:	b80b883a 	mov	r5,r23
   43de0:	0045d040 	call	45d04 <__sbprintf>
   43de4:	00001106 	br	43e2c <___vfprintf_internal_r+0x420>
   43de8:	d9002d17 	ldw	r4,180(sp)
   43dec:	d9801e04 	addi	r6,sp,120
   43df0:	b80b883a 	mov	r5,r23
   43df4:	004c8c40 	call	4c8c4 <__sprint_r>
   43df8:	1000081e 	bne	r2,zero,43e1c <___vfprintf_internal_r+0x410>
   43dfc:	da000404 	addi	r8,sp,16
   43e00:	003f5106 	br	43b48 <__alt_data_end+0xfffd1b48>
   43e04:	d8802017 	ldw	r2,128(sp)
   43e08:	10000426 	beq	r2,zero,43e1c <___vfprintf_internal_r+0x410>
   43e0c:	d9002d17 	ldw	r4,180(sp)
   43e10:	d9801e04 	addi	r6,sp,120
   43e14:	b80b883a 	mov	r5,r23
   43e18:	004c8c40 	call	4c8c4 <__sprint_r>
   43e1c:	b880030b 	ldhu	r2,12(r23)
   43e20:	1080100c 	andi	r2,r2,64
   43e24:	1005c01e 	bne	r2,zero,45528 <___vfprintf_internal_r+0x1b1c>
   43e28:	d8802f17 	ldw	r2,188(sp)
   43e2c:	dfc04717 	ldw	ra,284(sp)
   43e30:	df004617 	ldw	fp,280(sp)
   43e34:	ddc04517 	ldw	r23,276(sp)
   43e38:	dd804417 	ldw	r22,272(sp)
   43e3c:	dd404317 	ldw	r21,268(sp)
   43e40:	dd004217 	ldw	r20,264(sp)
   43e44:	dcc04117 	ldw	r19,260(sp)
   43e48:	dc804017 	ldw	r18,256(sp)
   43e4c:	dc403f17 	ldw	r17,252(sp)
   43e50:	dc003e17 	ldw	r16,248(sp)
   43e54:	dec04804 	addi	sp,sp,288
   43e58:	f800283a 	ret
   43e5c:	d9002d17 	ldw	r4,180(sp)
   43e60:	0047dcc0 	call	47dcc <__sinit>
   43e64:	003f0206 	br	43a70 <__alt_data_end+0xfffd1a70>
   43e68:	d9002e17 	ldw	r4,184(sp)
   43e6c:	d9402e17 	ldw	r5,184(sp)
   43e70:	21000017 	ldw	r4,0(r4)
   43e74:	28800104 	addi	r2,r5,4
   43e78:	d9003115 	stw	r4,196(sp)
   43e7c:	203fa716 	blt	r4,zero,43d1c <__alt_data_end+0xfffd1d1c>
   43e80:	d8802e15 	stw	r2,184(sp)
   43e84:	ac400007 	ldb	r17,0(r21)
   43e88:	003f4206 	br	43b94 <__alt_data_end+0xfffd1b94>
   43e8c:	ac400007 	ldb	r17,0(r21)
   43e90:	01000a84 	movi	r4,42
   43e94:	a8c00044 	addi	r3,r21,1
   43e98:	89075826 	beq	r17,r4,45bfc <___vfprintf_internal_r+0x21f0>
   43e9c:	8cbff404 	addi	r18,r17,-48
   43ea0:	b486ae36 	bltu	r22,r18,4595c <___vfprintf_internal_r+0x1f50>
   43ea4:	0009883a 	mov	r4,zero
   43ea8:	1823883a 	mov	r17,r3
   43eac:	01400284 	movi	r5,10
   43eb0:	004146c0 	call	4146c <__mulsi3>
   43eb4:	88c00007 	ldb	r3,0(r17)
   43eb8:	1489883a 	add	r4,r2,r18
   43ebc:	8d400044 	addi	r21,r17,1
   43ec0:	1cbff404 	addi	r18,r3,-48
   43ec4:	a823883a 	mov	r17,r21
   43ec8:	b4bff82e 	bgeu	r22,r18,43eac <__alt_data_end+0xfffd1eac>
   43ecc:	1823883a 	mov	r17,r3
   43ed0:	2005f616 	blt	r4,zero,456ac <___vfprintf_internal_r+0x1ca0>
   43ed4:	d9002a15 	stw	r4,168(sp)
   43ed8:	003f2f06 	br	43b98 <__alt_data_end+0xfffd1b98>
   43edc:	84002014 	ori	r16,r16,128
   43ee0:	ac400007 	ldb	r17,0(r21)
   43ee4:	003f2b06 	br	43b94 <__alt_data_end+0xfffd1b94>
   43ee8:	8cbff404 	addi	r18,r17,-48
   43eec:	d8003115 	stw	zero,196(sp)
   43ef0:	0009883a 	mov	r4,zero
   43ef4:	a823883a 	mov	r17,r21
   43ef8:	01400284 	movi	r5,10
   43efc:	004146c0 	call	4146c <__mulsi3>
   43f00:	88c00007 	ldb	r3,0(r17)
   43f04:	9089883a 	add	r4,r18,r2
   43f08:	ad400044 	addi	r21,r21,1
   43f0c:	1cbff404 	addi	r18,r3,-48
   43f10:	a823883a 	mov	r17,r21
   43f14:	b4bff82e 	bgeu	r22,r18,43ef8 <__alt_data_end+0xfffd1ef8>
   43f18:	1823883a 	mov	r17,r3
   43f1c:	d9003115 	stw	r4,196(sp)
   43f20:	003f1d06 	br	43b98 <__alt_data_end+0xfffd1b98>
   43f24:	8025883a 	mov	r18,r16
   43f28:	dc002903 	ldbu	r16,164(sp)
   43f2c:	e011883a 	mov	r8,fp
   43f30:	84003fcc 	andi	r16,r16,255
   43f34:	8007531e 	bne	r16,zero,45c84 <___vfprintf_internal_r+0x2278>
   43f38:	94800414 	ori	r18,r18,16
   43f3c:	9080080c 	andi	r2,r18,32
   43f40:	1003a326 	beq	r2,zero,44dd0 <___vfprintf_internal_r+0x13c4>
   43f44:	d9002e17 	ldw	r4,184(sp)
   43f48:	20800117 	ldw	r2,4(r4)
   43f4c:	24c00017 	ldw	r19,0(r4)
   43f50:	21000204 	addi	r4,r4,8
   43f54:	d9002e15 	stw	r4,184(sp)
   43f58:	102d883a 	mov	r22,r2
   43f5c:	10047316 	blt	r2,zero,4512c <___vfprintf_internal_r+0x1720>
   43f60:	d9002a17 	ldw	r4,168(sp)
   43f64:	df002783 	ldbu	fp,158(sp)
   43f68:	2003e416 	blt	r4,zero,44efc <___vfprintf_internal_r+0x14f0>
   43f6c:	00ffdfc4 	movi	r3,-129
   43f70:	9d84b03a 	or	r2,r19,r22
   43f74:	90e4703a 	and	r18,r18,r3
   43f78:	10018026 	beq	r2,zero,4457c <___vfprintf_internal_r+0xb70>
   43f7c:	b003ab26 	beq	r22,zero,44e2c <___vfprintf_internal_r+0x1420>
   43f80:	dc402915 	stw	r17,164(sp)
   43f84:	dc001e04 	addi	r16,sp,120
   43f88:	b023883a 	mov	r17,r22
   43f8c:	402d883a 	mov	r22,r8
   43f90:	9809883a 	mov	r4,r19
   43f94:	880b883a 	mov	r5,r17
   43f98:	01800284 	movi	r6,10
   43f9c:	000f883a 	mov	r7,zero
   43fa0:	004ee080 	call	4ee08 <__umoddi3>
   43fa4:	10800c04 	addi	r2,r2,48
   43fa8:	843fffc4 	addi	r16,r16,-1
   43fac:	9809883a 	mov	r4,r19
   43fb0:	880b883a 	mov	r5,r17
   43fb4:	80800005 	stb	r2,0(r16)
   43fb8:	01800284 	movi	r6,10
   43fbc:	000f883a 	mov	r7,zero
   43fc0:	004e80c0 	call	4e80c <__udivdi3>
   43fc4:	1027883a 	mov	r19,r2
   43fc8:	10c4b03a 	or	r2,r2,r3
   43fcc:	1823883a 	mov	r17,r3
   43fd0:	103fef1e 	bne	r2,zero,43f90 <__alt_data_end+0xfffd1f90>
   43fd4:	d8c02817 	ldw	r3,160(sp)
   43fd8:	dc402917 	ldw	r17,164(sp)
   43fdc:	b011883a 	mov	r8,r22
   43fe0:	1c07c83a 	sub	r3,r3,r16
   43fe4:	d8c02b15 	stw	r3,172(sp)
   43fe8:	00005f06 	br	44168 <___vfprintf_internal_r+0x75c>
   43fec:	8025883a 	mov	r18,r16
   43ff0:	dc002903 	ldbu	r16,164(sp)
   43ff4:	e011883a 	mov	r8,fp
   43ff8:	84003fcc 	andi	r16,r16,255
   43ffc:	80071e1e 	bne	r16,zero,45c78 <___vfprintf_internal_r+0x226c>
   44000:	9080020c 	andi	r2,r18,8
   44004:	1004af26 	beq	r2,zero,452c4 <___vfprintf_internal_r+0x18b8>
   44008:	d9002e17 	ldw	r4,184(sp)
   4400c:	d9402e17 	ldw	r5,184(sp)
   44010:	d8802e17 	ldw	r2,184(sp)
   44014:	21000017 	ldw	r4,0(r4)
   44018:	29400117 	ldw	r5,4(r5)
   4401c:	10800204 	addi	r2,r2,8
   44020:	d9003615 	stw	r4,216(sp)
   44024:	d9403815 	stw	r5,224(sp)
   44028:	d8802e15 	stw	r2,184(sp)
   4402c:	d9003617 	ldw	r4,216(sp)
   44030:	d9403817 	ldw	r5,224(sp)
   44034:	da003d15 	stw	r8,244(sp)
   44038:	04000044 	movi	r16,1
   4403c:	004af780 	call	4af78 <__fpclassifyd>
   44040:	da003d17 	ldw	r8,244(sp)
   44044:	1404441e 	bne	r2,r16,45158 <___vfprintf_internal_r+0x174c>
   44048:	d9003617 	ldw	r4,216(sp)
   4404c:	d9403817 	ldw	r5,224(sp)
   44050:	000d883a 	mov	r6,zero
   44054:	000f883a 	mov	r7,zero
   44058:	00507ac0 	call	507ac <__ledf2>
   4405c:	da003d17 	ldw	r8,244(sp)
   44060:	1005e316 	blt	r2,zero,457f0 <___vfprintf_internal_r+0x1de4>
   44064:	df002783 	ldbu	fp,158(sp)
   44068:	008011c4 	movi	r2,71
   4406c:	1445580e 	bge	r2,r17,455d0 <___vfprintf_internal_r+0x1bc4>
   44070:	04000174 	movhi	r16,5
   44074:	841a2004 	addi	r16,r16,26752
   44078:	00c000c4 	movi	r3,3
   4407c:	00bfdfc4 	movi	r2,-129
   44080:	d8c02915 	stw	r3,164(sp)
   44084:	90a4703a 	and	r18,r18,r2
   44088:	d8c02b15 	stw	r3,172(sp)
   4408c:	d8002a15 	stw	zero,168(sp)
   44090:	d8003215 	stw	zero,200(sp)
   44094:	00003a06 	br	44180 <___vfprintf_internal_r+0x774>
   44098:	84000214 	ori	r16,r16,8
   4409c:	ac400007 	ldb	r17,0(r21)
   440a0:	003ebc06 	br	43b94 <__alt_data_end+0xfffd1b94>
   440a4:	8025883a 	mov	r18,r16
   440a8:	dc002903 	ldbu	r16,164(sp)
   440ac:	e011883a 	mov	r8,fp
   440b0:	84003fcc 	andi	r16,r16,255
   440b4:	8007001e 	bne	r16,zero,45cb8 <___vfprintf_internal_r+0x22ac>
   440b8:	94800414 	ori	r18,r18,16
   440bc:	9080080c 	andi	r2,r18,32
   440c0:	1002fa26 	beq	r2,zero,44cac <___vfprintf_internal_r+0x12a0>
   440c4:	d9002e17 	ldw	r4,184(sp)
   440c8:	d9402a17 	ldw	r5,168(sp)
   440cc:	d8002785 	stb	zero,158(sp)
   440d0:	20800204 	addi	r2,r4,8
   440d4:	24c00017 	ldw	r19,0(r4)
   440d8:	25800117 	ldw	r22,4(r4)
   440dc:	2804b116 	blt	r5,zero,453a4 <___vfprintf_internal_r+0x1998>
   440e0:	013fdfc4 	movi	r4,-129
   440e4:	9d86b03a 	or	r3,r19,r22
   440e8:	d8802e15 	stw	r2,184(sp)
   440ec:	9124703a 	and	r18,r18,r4
   440f0:	1802fb1e 	bne	r3,zero,44ce0 <___vfprintf_internal_r+0x12d4>
   440f4:	d8c02a17 	ldw	r3,168(sp)
   440f8:	0039883a 	mov	fp,zero
   440fc:	1805e526 	beq	r3,zero,45894 <___vfprintf_internal_r+0x1e88>
   44100:	0027883a 	mov	r19,zero
   44104:	002d883a 	mov	r22,zero
   44108:	dc001e04 	addi	r16,sp,120
   4410c:	9806d0fa 	srli	r3,r19,3
   44110:	b008977a 	slli	r4,r22,29
   44114:	b02cd0fa 	srli	r22,r22,3
   44118:	9cc001cc 	andi	r19,r19,7
   4411c:	98800c04 	addi	r2,r19,48
   44120:	843fffc4 	addi	r16,r16,-1
   44124:	20e6b03a 	or	r19,r4,r3
   44128:	80800005 	stb	r2,0(r16)
   4412c:	9d86b03a 	or	r3,r19,r22
   44130:	183ff61e 	bne	r3,zero,4410c <__alt_data_end+0xfffd210c>
   44134:	90c0004c 	andi	r3,r18,1
   44138:	18014126 	beq	r3,zero,44640 <___vfprintf_internal_r+0xc34>
   4413c:	10803fcc 	andi	r2,r2,255
   44140:	1080201c 	xori	r2,r2,128
   44144:	10bfe004 	addi	r2,r2,-128
   44148:	00c00c04 	movi	r3,48
   4414c:	10c13c26 	beq	r2,r3,44640 <___vfprintf_internal_r+0xc34>
   44150:	80ffffc5 	stb	r3,-1(r16)
   44154:	d8c02817 	ldw	r3,160(sp)
   44158:	80bfffc4 	addi	r2,r16,-1
   4415c:	1021883a 	mov	r16,r2
   44160:	1887c83a 	sub	r3,r3,r2
   44164:	d8c02b15 	stw	r3,172(sp)
   44168:	d8802b17 	ldw	r2,172(sp)
   4416c:	d9002a17 	ldw	r4,168(sp)
   44170:	1100010e 	bge	r2,r4,44178 <___vfprintf_internal_r+0x76c>
   44174:	2005883a 	mov	r2,r4
   44178:	d8802915 	stw	r2,164(sp)
   4417c:	d8003215 	stw	zero,200(sp)
   44180:	e7003fcc 	andi	fp,fp,255
   44184:	e700201c 	xori	fp,fp,128
   44188:	e73fe004 	addi	fp,fp,-128
   4418c:	e0000326 	beq	fp,zero,4419c <___vfprintf_internal_r+0x790>
   44190:	d8c02917 	ldw	r3,164(sp)
   44194:	18c00044 	addi	r3,r3,1
   44198:	d8c02915 	stw	r3,164(sp)
   4419c:	90c0008c 	andi	r3,r18,2
   441a0:	d8c02c15 	stw	r3,176(sp)
   441a4:	18000326 	beq	r3,zero,441b4 <___vfprintf_internal_r+0x7a8>
   441a8:	d8c02917 	ldw	r3,164(sp)
   441ac:	18c00084 	addi	r3,r3,2
   441b0:	d8c02915 	stw	r3,164(sp)
   441b4:	90c0210c 	andi	r3,r18,132
   441b8:	d8c03015 	stw	r3,192(sp)
   441bc:	1801c51e 	bne	r3,zero,448d4 <___vfprintf_internal_r+0xec8>
   441c0:	d9003117 	ldw	r4,196(sp)
   441c4:	d8c02917 	ldw	r3,164(sp)
   441c8:	20e7c83a 	sub	r19,r4,r3
   441cc:	04c1c10e 	bge	zero,r19,448d4 <___vfprintf_internal_r+0xec8>
   441d0:	02400404 	movi	r9,16
   441d4:	d8c02017 	ldw	r3,128(sp)
   441d8:	d8801f17 	ldw	r2,124(sp)
   441dc:	4cc52f0e 	bge	r9,r19,4569c <___vfprintf_internal_r+0x1c90>
   441e0:	01400174 	movhi	r5,5
   441e4:	295a3b84 	addi	r5,r5,26862
   441e8:	dc403b15 	stw	r17,236(sp)
   441ec:	d9403515 	stw	r5,212(sp)
   441f0:	9823883a 	mov	r17,r19
   441f4:	482d883a 	mov	r22,r9
   441f8:	9027883a 	mov	r19,r18
   441fc:	070001c4 	movi	fp,7
   44200:	8025883a 	mov	r18,r16
   44204:	dc002d17 	ldw	r16,180(sp)
   44208:	00000306 	br	44218 <___vfprintf_internal_r+0x80c>
   4420c:	8c7ffc04 	addi	r17,r17,-16
   44210:	42000204 	addi	r8,r8,8
   44214:	b440130e 	bge	r22,r17,44264 <___vfprintf_internal_r+0x858>
   44218:	01000174 	movhi	r4,5
   4421c:	18c00404 	addi	r3,r3,16
   44220:	10800044 	addi	r2,r2,1
   44224:	211a3b84 	addi	r4,r4,26862
   44228:	41000015 	stw	r4,0(r8)
   4422c:	45800115 	stw	r22,4(r8)
   44230:	d8c02015 	stw	r3,128(sp)
   44234:	d8801f15 	stw	r2,124(sp)
   44238:	e0bff40e 	bge	fp,r2,4420c <__alt_data_end+0xfffd220c>
   4423c:	d9801e04 	addi	r6,sp,120
   44240:	b80b883a 	mov	r5,r23
   44244:	8009883a 	mov	r4,r16
   44248:	004c8c40 	call	4c8c4 <__sprint_r>
   4424c:	103ef31e 	bne	r2,zero,43e1c <__alt_data_end+0xfffd1e1c>
   44250:	8c7ffc04 	addi	r17,r17,-16
   44254:	d8c02017 	ldw	r3,128(sp)
   44258:	d8801f17 	ldw	r2,124(sp)
   4425c:	da000404 	addi	r8,sp,16
   44260:	b47fed16 	blt	r22,r17,44218 <__alt_data_end+0xfffd2218>
   44264:	9021883a 	mov	r16,r18
   44268:	9825883a 	mov	r18,r19
   4426c:	8827883a 	mov	r19,r17
   44270:	dc403b17 	ldw	r17,236(sp)
   44274:	d9403517 	ldw	r5,212(sp)
   44278:	98c7883a 	add	r3,r19,r3
   4427c:	10800044 	addi	r2,r2,1
   44280:	41400015 	stw	r5,0(r8)
   44284:	44c00115 	stw	r19,4(r8)
   44288:	d8c02015 	stw	r3,128(sp)
   4428c:	d8801f15 	stw	r2,124(sp)
   44290:	010001c4 	movi	r4,7
   44294:	2082c516 	blt	r4,r2,44dac <___vfprintf_internal_r+0x13a0>
   44298:	df002787 	ldb	fp,158(sp)
   4429c:	42000204 	addi	r8,r8,8
   442a0:	e0000c26 	beq	fp,zero,442d4 <___vfprintf_internal_r+0x8c8>
   442a4:	d8801f17 	ldw	r2,124(sp)
   442a8:	d9002784 	addi	r4,sp,158
   442ac:	18c00044 	addi	r3,r3,1
   442b0:	10800044 	addi	r2,r2,1
   442b4:	41000015 	stw	r4,0(r8)
   442b8:	01000044 	movi	r4,1
   442bc:	41000115 	stw	r4,4(r8)
   442c0:	d8c02015 	stw	r3,128(sp)
   442c4:	d8801f15 	stw	r2,124(sp)
   442c8:	010001c4 	movi	r4,7
   442cc:	20825e16 	blt	r4,r2,44c48 <___vfprintf_internal_r+0x123c>
   442d0:	42000204 	addi	r8,r8,8
   442d4:	d8802c17 	ldw	r2,176(sp)
   442d8:	10000c26 	beq	r2,zero,4430c <___vfprintf_internal_r+0x900>
   442dc:	d8801f17 	ldw	r2,124(sp)
   442e0:	d9002704 	addi	r4,sp,156
   442e4:	18c00084 	addi	r3,r3,2
   442e8:	10800044 	addi	r2,r2,1
   442ec:	41000015 	stw	r4,0(r8)
   442f0:	01000084 	movi	r4,2
   442f4:	41000115 	stw	r4,4(r8)
   442f8:	d8c02015 	stw	r3,128(sp)
   442fc:	d8801f15 	stw	r2,124(sp)
   44300:	010001c4 	movi	r4,7
   44304:	20825816 	blt	r4,r2,44c68 <___vfprintf_internal_r+0x125c>
   44308:	42000204 	addi	r8,r8,8
   4430c:	d9003017 	ldw	r4,192(sp)
   44310:	00802004 	movi	r2,128
   44314:	2081bb26 	beq	r4,r2,44a04 <___vfprintf_internal_r+0xff8>
   44318:	d9402a17 	ldw	r5,168(sp)
   4431c:	d8802b17 	ldw	r2,172(sp)
   44320:	28adc83a 	sub	r22,r5,r2
   44324:	0580310e 	bge	zero,r22,443ec <___vfprintf_internal_r+0x9e0>
   44328:	07000404 	movi	fp,16
   4432c:	d8801f17 	ldw	r2,124(sp)
   44330:	e584360e 	bge	fp,r22,4540c <___vfprintf_internal_r+0x1a00>
   44334:	01400174 	movhi	r5,5
   44338:	295a3784 	addi	r5,r5,26846
   4433c:	dc402a15 	stw	r17,168(sp)
   44340:	d9402c15 	stw	r5,176(sp)
   44344:	b023883a 	mov	r17,r22
   44348:	04c001c4 	movi	r19,7
   4434c:	a82d883a 	mov	r22,r21
   44350:	902b883a 	mov	r21,r18
   44354:	8025883a 	mov	r18,r16
   44358:	dc002d17 	ldw	r16,180(sp)
   4435c:	00000306 	br	4436c <___vfprintf_internal_r+0x960>
   44360:	8c7ffc04 	addi	r17,r17,-16
   44364:	42000204 	addi	r8,r8,8
   44368:	e440110e 	bge	fp,r17,443b0 <___vfprintf_internal_r+0x9a4>
   4436c:	18c00404 	addi	r3,r3,16
   44370:	10800044 	addi	r2,r2,1
   44374:	45000015 	stw	r20,0(r8)
   44378:	47000115 	stw	fp,4(r8)
   4437c:	d8c02015 	stw	r3,128(sp)
   44380:	d8801f15 	stw	r2,124(sp)
   44384:	98bff60e 	bge	r19,r2,44360 <__alt_data_end+0xfffd2360>
   44388:	d9801e04 	addi	r6,sp,120
   4438c:	b80b883a 	mov	r5,r23
   44390:	8009883a 	mov	r4,r16
   44394:	004c8c40 	call	4c8c4 <__sprint_r>
   44398:	103ea01e 	bne	r2,zero,43e1c <__alt_data_end+0xfffd1e1c>
   4439c:	8c7ffc04 	addi	r17,r17,-16
   443a0:	d8c02017 	ldw	r3,128(sp)
   443a4:	d8801f17 	ldw	r2,124(sp)
   443a8:	da000404 	addi	r8,sp,16
   443ac:	e47fef16 	blt	fp,r17,4436c <__alt_data_end+0xfffd236c>
   443b0:	9021883a 	mov	r16,r18
   443b4:	a825883a 	mov	r18,r21
   443b8:	b02b883a 	mov	r21,r22
   443bc:	882d883a 	mov	r22,r17
   443c0:	dc402a17 	ldw	r17,168(sp)
   443c4:	d9002c17 	ldw	r4,176(sp)
   443c8:	1d87883a 	add	r3,r3,r22
   443cc:	10800044 	addi	r2,r2,1
   443d0:	41000015 	stw	r4,0(r8)
   443d4:	45800115 	stw	r22,4(r8)
   443d8:	d8c02015 	stw	r3,128(sp)
   443dc:	d8801f15 	stw	r2,124(sp)
   443e0:	010001c4 	movi	r4,7
   443e4:	20821016 	blt	r4,r2,44c28 <___vfprintf_internal_r+0x121c>
   443e8:	42000204 	addi	r8,r8,8
   443ec:	9080400c 	andi	r2,r18,256
   443f0:	10013a1e 	bne	r2,zero,448dc <___vfprintf_internal_r+0xed0>
   443f4:	d9402b17 	ldw	r5,172(sp)
   443f8:	d8801f17 	ldw	r2,124(sp)
   443fc:	44000015 	stw	r16,0(r8)
   44400:	1947883a 	add	r3,r3,r5
   44404:	10800044 	addi	r2,r2,1
   44408:	41400115 	stw	r5,4(r8)
   4440c:	d8c02015 	stw	r3,128(sp)
   44410:	d8801f15 	stw	r2,124(sp)
   44414:	010001c4 	movi	r4,7
   44418:	2081f516 	blt	r4,r2,44bf0 <___vfprintf_internal_r+0x11e4>
   4441c:	42000204 	addi	r8,r8,8
   44420:	9480010c 	andi	r18,r18,4
   44424:	90003226 	beq	r18,zero,444f0 <___vfprintf_internal_r+0xae4>
   44428:	d9403117 	ldw	r5,196(sp)
   4442c:	d8802917 	ldw	r2,164(sp)
   44430:	28a1c83a 	sub	r16,r5,r2
   44434:	04002e0e 	bge	zero,r16,444f0 <___vfprintf_internal_r+0xae4>
   44438:	04400404 	movi	r17,16
   4443c:	d8801f17 	ldw	r2,124(sp)
   44440:	8c04c40e 	bge	r17,r16,45754 <___vfprintf_internal_r+0x1d48>
   44444:	01400174 	movhi	r5,5
   44448:	295a3b84 	addi	r5,r5,26862
   4444c:	d9403515 	stw	r5,212(sp)
   44450:	048001c4 	movi	r18,7
   44454:	dcc02d17 	ldw	r19,180(sp)
   44458:	00000306 	br	44468 <___vfprintf_internal_r+0xa5c>
   4445c:	843ffc04 	addi	r16,r16,-16
   44460:	42000204 	addi	r8,r8,8
   44464:	8c00130e 	bge	r17,r16,444b4 <___vfprintf_internal_r+0xaa8>
   44468:	01000174 	movhi	r4,5
   4446c:	18c00404 	addi	r3,r3,16
   44470:	10800044 	addi	r2,r2,1
   44474:	211a3b84 	addi	r4,r4,26862
   44478:	41000015 	stw	r4,0(r8)
   4447c:	44400115 	stw	r17,4(r8)
   44480:	d8c02015 	stw	r3,128(sp)
   44484:	d8801f15 	stw	r2,124(sp)
   44488:	90bff40e 	bge	r18,r2,4445c <__alt_data_end+0xfffd245c>
   4448c:	d9801e04 	addi	r6,sp,120
   44490:	b80b883a 	mov	r5,r23
   44494:	9809883a 	mov	r4,r19
   44498:	004c8c40 	call	4c8c4 <__sprint_r>
   4449c:	103e5f1e 	bne	r2,zero,43e1c <__alt_data_end+0xfffd1e1c>
   444a0:	843ffc04 	addi	r16,r16,-16
   444a4:	d8c02017 	ldw	r3,128(sp)
   444a8:	d8801f17 	ldw	r2,124(sp)
   444ac:	da000404 	addi	r8,sp,16
   444b0:	8c3fed16 	blt	r17,r16,44468 <__alt_data_end+0xfffd2468>
   444b4:	d9403517 	ldw	r5,212(sp)
   444b8:	1c07883a 	add	r3,r3,r16
   444bc:	10800044 	addi	r2,r2,1
   444c0:	41400015 	stw	r5,0(r8)
   444c4:	44000115 	stw	r16,4(r8)
   444c8:	d8c02015 	stw	r3,128(sp)
   444cc:	d8801f15 	stw	r2,124(sp)
   444d0:	010001c4 	movi	r4,7
   444d4:	2080060e 	bge	r4,r2,444f0 <___vfprintf_internal_r+0xae4>
   444d8:	d9002d17 	ldw	r4,180(sp)
   444dc:	d9801e04 	addi	r6,sp,120
   444e0:	b80b883a 	mov	r5,r23
   444e4:	004c8c40 	call	4c8c4 <__sprint_r>
   444e8:	103e4c1e 	bne	r2,zero,43e1c <__alt_data_end+0xfffd1e1c>
   444ec:	d8c02017 	ldw	r3,128(sp)
   444f0:	d8803117 	ldw	r2,196(sp)
   444f4:	d9002917 	ldw	r4,164(sp)
   444f8:	1100010e 	bge	r2,r4,44500 <___vfprintf_internal_r+0xaf4>
   444fc:	2005883a 	mov	r2,r4
   44500:	d9402f17 	ldw	r5,188(sp)
   44504:	288b883a 	add	r5,r5,r2
   44508:	d9402f15 	stw	r5,188(sp)
   4450c:	1801c01e 	bne	r3,zero,44c10 <___vfprintf_internal_r+0x1204>
   44510:	a8800007 	ldb	r2,0(r21)
   44514:	d8001f15 	stw	zero,124(sp)
   44518:	da000404 	addi	r8,sp,16
   4451c:	103d751e 	bne	r2,zero,43af4 <__alt_data_end+0xfffd1af4>
   44520:	a823883a 	mov	r17,r21
   44524:	003d8b06 	br	43b54 <__alt_data_end+0xfffd1b54>
   44528:	8025883a 	mov	r18,r16
   4452c:	dc002903 	ldbu	r16,164(sp)
   44530:	e011883a 	mov	r8,fp
   44534:	84003fcc 	andi	r16,r16,255
   44538:	8005e51e 	bne	r16,zero,45cd0 <___vfprintf_internal_r+0x22c4>
   4453c:	94800414 	ori	r18,r18,16
   44540:	9080080c 	andi	r2,r18,32
   44544:	10022b26 	beq	r2,zero,44df4 <___vfprintf_internal_r+0x13e8>
   44548:	d9002e17 	ldw	r4,184(sp)
   4454c:	d9402a17 	ldw	r5,168(sp)
   44550:	d8002785 	stb	zero,158(sp)
   44554:	20c00204 	addi	r3,r4,8
   44558:	24c00017 	ldw	r19,0(r4)
   4455c:	25800117 	ldw	r22,4(r4)
   44560:	28042e16 	blt	r5,zero,4561c <___vfprintf_internal_r+0x1c10>
   44564:	013fdfc4 	movi	r4,-129
   44568:	9d84b03a 	or	r2,r19,r22
   4456c:	d8c02e15 	stw	r3,184(sp)
   44570:	9124703a 	and	r18,r18,r4
   44574:	0039883a 	mov	fp,zero
   44578:	103e801e 	bne	r2,zero,43f7c <__alt_data_end+0xfffd1f7c>
   4457c:	d9002a17 	ldw	r4,168(sp)
   44580:	2002e01e 	bne	r4,zero,45104 <___vfprintf_internal_r+0x16f8>
   44584:	d8002a15 	stw	zero,168(sp)
   44588:	d8002b15 	stw	zero,172(sp)
   4458c:	dc001e04 	addi	r16,sp,120
   44590:	003ef506 	br	44168 <__alt_data_end+0xfffd2168>
   44594:	8025883a 	mov	r18,r16
   44598:	dc002903 	ldbu	r16,164(sp)
   4459c:	e011883a 	mov	r8,fp
   445a0:	84003fcc 	andi	r16,r16,255
   445a4:	8005ba1e 	bne	r16,zero,45c90 <___vfprintf_internal_r+0x2284>
   445a8:	01000174 	movhi	r4,5
   445ac:	211a2304 	addi	r4,r4,26764
   445b0:	d9003915 	stw	r4,228(sp)
   445b4:	9080080c 	andi	r2,r18,32
   445b8:	10006126 	beq	r2,zero,44740 <___vfprintf_internal_r+0xd34>
   445bc:	d9402e17 	ldw	r5,184(sp)
   445c0:	2cc00017 	ldw	r19,0(r5)
   445c4:	2d800117 	ldw	r22,4(r5)
   445c8:	29400204 	addi	r5,r5,8
   445cc:	d9402e15 	stw	r5,184(sp)
   445d0:	9080004c 	andi	r2,r18,1
   445d4:	1001ac26 	beq	r2,zero,44c88 <___vfprintf_internal_r+0x127c>
   445d8:	9d84b03a 	or	r2,r19,r22
   445dc:	10038526 	beq	r2,zero,453f4 <___vfprintf_internal_r+0x19e8>
   445e0:	d8c02a17 	ldw	r3,168(sp)
   445e4:	00800c04 	movi	r2,48
   445e8:	d8802705 	stb	r2,156(sp)
   445ec:	dc402745 	stb	r17,157(sp)
   445f0:	d8002785 	stb	zero,158(sp)
   445f4:	90800094 	ori	r2,r18,2
   445f8:	18047916 	blt	r3,zero,457e0 <___vfprintf_internal_r+0x1dd4>
   445fc:	00bfdfc4 	movi	r2,-129
   44600:	90a4703a 	and	r18,r18,r2
   44604:	94800094 	ori	r18,r18,2
   44608:	0039883a 	mov	fp,zero
   4460c:	d9003917 	ldw	r4,228(sp)
   44610:	dc001e04 	addi	r16,sp,120
   44614:	988003cc 	andi	r2,r19,15
   44618:	b006973a 	slli	r3,r22,28
   4461c:	2085883a 	add	r2,r4,r2
   44620:	9826d13a 	srli	r19,r19,4
   44624:	10800003 	ldbu	r2,0(r2)
   44628:	b02cd13a 	srli	r22,r22,4
   4462c:	843fffc4 	addi	r16,r16,-1
   44630:	1ce6b03a 	or	r19,r3,r19
   44634:	80800005 	stb	r2,0(r16)
   44638:	9d84b03a 	or	r2,r19,r22
   4463c:	103ff51e 	bne	r2,zero,44614 <__alt_data_end+0xfffd2614>
   44640:	d8c02817 	ldw	r3,160(sp)
   44644:	1c07c83a 	sub	r3,r3,r16
   44648:	d8c02b15 	stw	r3,172(sp)
   4464c:	003ec606 	br	44168 <__alt_data_end+0xfffd2168>
   44650:	8025883a 	mov	r18,r16
   44654:	dc002903 	ldbu	r16,164(sp)
   44658:	e011883a 	mov	r8,fp
   4465c:	84003fcc 	andi	r16,r16,255
   44660:	803e9626 	beq	r16,zero,440bc <__alt_data_end+0xfffd20bc>
   44664:	d8c02b03 	ldbu	r3,172(sp)
   44668:	d8c02785 	stb	r3,158(sp)
   4466c:	003e9306 	br	440bc <__alt_data_end+0xfffd20bc>
   44670:	00c00044 	movi	r3,1
   44674:	d8c02905 	stb	r3,164(sp)
   44678:	00c00ac4 	movi	r3,43
   4467c:	d8c02b05 	stb	r3,172(sp)
   44680:	ac400007 	ldb	r17,0(r21)
   44684:	003d4306 	br	43b94 <__alt_data_end+0xfffd1b94>
   44688:	84000814 	ori	r16,r16,32
   4468c:	ac400007 	ldb	r17,0(r21)
   44690:	003d4006 	br	43b94 <__alt_data_end+0xfffd1b94>
   44694:	d8802e17 	ldw	r2,184(sp)
   44698:	8025883a 	mov	r18,r16
   4469c:	d8002785 	stb	zero,158(sp)
   446a0:	14000017 	ldw	r16,0(r2)
   446a4:	e011883a 	mov	r8,fp
   446a8:	14c00104 	addi	r19,r2,4
   446ac:	80042d26 	beq	r16,zero,45764 <___vfprintf_internal_r+0x1d58>
   446b0:	d8c02a17 	ldw	r3,168(sp)
   446b4:	1803e416 	blt	r3,zero,45648 <___vfprintf_internal_r+0x1c3c>
   446b8:	180d883a 	mov	r6,r3
   446bc:	000b883a 	mov	r5,zero
   446c0:	8009883a 	mov	r4,r16
   446c4:	df003d15 	stw	fp,244(sp)
   446c8:	00493440 	call	49344 <memchr>
   446cc:	da003d17 	ldw	r8,244(sp)
   446d0:	10046826 	beq	r2,zero,45874 <___vfprintf_internal_r+0x1e68>
   446d4:	1405c83a 	sub	r2,r2,r16
   446d8:	d8802b15 	stw	r2,172(sp)
   446dc:	1003e016 	blt	r2,zero,45660 <___vfprintf_internal_r+0x1c54>
   446e0:	df002783 	ldbu	fp,158(sp)
   446e4:	d8802915 	stw	r2,164(sp)
   446e8:	dcc02e15 	stw	r19,184(sp)
   446ec:	d8002a15 	stw	zero,168(sp)
   446f0:	d8003215 	stw	zero,200(sp)
   446f4:	003ea206 	br	44180 <__alt_data_end+0xfffd2180>
   446f8:	8025883a 	mov	r18,r16
   446fc:	dc002903 	ldbu	r16,164(sp)
   44700:	e011883a 	mov	r8,fp
   44704:	84003fcc 	andi	r16,r16,255
   44708:	803f8d26 	beq	r16,zero,44540 <__alt_data_end+0xfffd2540>
   4470c:	d8c02b03 	ldbu	r3,172(sp)
   44710:	d8c02785 	stb	r3,158(sp)
   44714:	003f8a06 	br	44540 <__alt_data_end+0xfffd2540>
   44718:	8025883a 	mov	r18,r16
   4471c:	dc002903 	ldbu	r16,164(sp)
   44720:	e011883a 	mov	r8,fp
   44724:	84003fcc 	andi	r16,r16,255
   44728:	8005661e 	bne	r16,zero,45cc4 <___vfprintf_internal_r+0x22b8>
   4472c:	01000174 	movhi	r4,5
   44730:	211a2804 	addi	r4,r4,26784
   44734:	d9003915 	stw	r4,228(sp)
   44738:	9080080c 	andi	r2,r18,32
   4473c:	103f9f1e 	bne	r2,zero,445bc <__alt_data_end+0xfffd25bc>
   44740:	9080040c 	andi	r2,r18,16
   44744:	1002eb26 	beq	r2,zero,452f4 <___vfprintf_internal_r+0x18e8>
   44748:	d8802e17 	ldw	r2,184(sp)
   4474c:	002d883a 	mov	r22,zero
   44750:	14c00017 	ldw	r19,0(r2)
   44754:	10800104 	addi	r2,r2,4
   44758:	d8802e15 	stw	r2,184(sp)
   4475c:	003f9c06 	br	445d0 <__alt_data_end+0xfffd25d0>
   44760:	d8802b07 	ldb	r2,172(sp)
   44764:	1002e11e 	bne	r2,zero,452ec <___vfprintf_internal_r+0x18e0>
   44768:	00c00044 	movi	r3,1
   4476c:	d8c02905 	stb	r3,164(sp)
   44770:	00c00804 	movi	r3,32
   44774:	d8c02b05 	stb	r3,172(sp)
   44778:	ac400007 	ldb	r17,0(r21)
   4477c:	003d0506 	br	43b94 <__alt_data_end+0xfffd1b94>
   44780:	84000054 	ori	r16,r16,1
   44784:	ac400007 	ldb	r17,0(r21)
   44788:	003d0206 	br	43b94 <__alt_data_end+0xfffd1b94>
   4478c:	8025883a 	mov	r18,r16
   44790:	dc002903 	ldbu	r16,164(sp)
   44794:	e011883a 	mov	r8,fp
   44798:	84003fcc 	andi	r16,r16,255
   4479c:	803de726 	beq	r16,zero,43f3c <__alt_data_end+0xfffd1f3c>
   447a0:	d8c02b03 	ldbu	r3,172(sp)
   447a4:	d8c02785 	stb	r3,158(sp)
   447a8:	003de406 	br	43f3c <__alt_data_end+0xfffd1f3c>
   447ac:	84001014 	ori	r16,r16,64
   447b0:	ac400007 	ldb	r17,0(r21)
   447b4:	003cf706 	br	43b94 <__alt_data_end+0xfffd1b94>
   447b8:	ac400007 	ldb	r17,0(r21)
   447bc:	00801b04 	movi	r2,108
   447c0:	88838f26 	beq	r17,r2,45600 <___vfprintf_internal_r+0x1bf4>
   447c4:	84000414 	ori	r16,r16,16
   447c8:	003cf206 	br	43b94 <__alt_data_end+0xfffd1b94>
   447cc:	8025883a 	mov	r18,r16
   447d0:	dc002903 	ldbu	r16,164(sp)
   447d4:	e011883a 	mov	r8,fp
   447d8:	84003fcc 	andi	r16,r16,255
   447dc:	80053f1e 	bne	r16,zero,45cdc <___vfprintf_internal_r+0x22d0>
   447e0:	9080080c 	andi	r2,r18,32
   447e4:	1002d226 	beq	r2,zero,45330 <___vfprintf_internal_r+0x1924>
   447e8:	d9002e17 	ldw	r4,184(sp)
   447ec:	d9402f17 	ldw	r5,188(sp)
   447f0:	20800017 	ldw	r2,0(r4)
   447f4:	2807d7fa 	srai	r3,r5,31
   447f8:	21000104 	addi	r4,r4,4
   447fc:	d9002e15 	stw	r4,184(sp)
   44800:	11400015 	stw	r5,0(r2)
   44804:	10c00115 	stw	r3,4(r2)
   44808:	003cb806 	br	43aec <__alt_data_end+0xfffd1aec>
   4480c:	d8c02e17 	ldw	r3,184(sp)
   44810:	d9002e17 	ldw	r4,184(sp)
   44814:	8025883a 	mov	r18,r16
   44818:	18800017 	ldw	r2,0(r3)
   4481c:	21000104 	addi	r4,r4,4
   44820:	00c00044 	movi	r3,1
   44824:	e011883a 	mov	r8,fp
   44828:	d8c02915 	stw	r3,164(sp)
   4482c:	d8002785 	stb	zero,158(sp)
   44830:	d8801405 	stb	r2,80(sp)
   44834:	d9002e15 	stw	r4,184(sp)
   44838:	d8c02b15 	stw	r3,172(sp)
   4483c:	d8002a15 	stw	zero,168(sp)
   44840:	d8003215 	stw	zero,200(sp)
   44844:	dc001404 	addi	r16,sp,80
   44848:	0039883a 	mov	fp,zero
   4484c:	003e5306 	br	4419c <__alt_data_end+0xfffd219c>
   44850:	01000174 	movhi	r4,5
   44854:	211a2804 	addi	r4,r4,26784
   44858:	0039883a 	mov	fp,zero
   4485c:	d9003915 	stw	r4,228(sp)
   44860:	04401e04 	movi	r17,120
   44864:	003f6906 	br	4460c <__alt_data_end+0xfffd260c>
   44868:	8025883a 	mov	r18,r16
   4486c:	dc002903 	ldbu	r16,164(sp)
   44870:	e011883a 	mov	r8,fp
   44874:	84003fcc 	andi	r16,r16,255
   44878:	8005081e 	bne	r16,zero,45c9c <___vfprintf_internal_r+0x2290>
   4487c:	883d6126 	beq	r17,zero,43e04 <__alt_data_end+0xfffd1e04>
   44880:	00c00044 	movi	r3,1
   44884:	d8c02915 	stw	r3,164(sp)
   44888:	dc401405 	stb	r17,80(sp)
   4488c:	d8002785 	stb	zero,158(sp)
   44890:	003fe906 	br	44838 <__alt_data_end+0xfffd2838>
   44894:	01400174 	movhi	r5,5
   44898:	295a2804 	addi	r5,r5,26784
   4489c:	d9403915 	stw	r5,228(sp)
   448a0:	d8c02e15 	stw	r3,184(sp)
   448a4:	1025883a 	mov	r18,r2
   448a8:	04401e04 	movi	r17,120
   448ac:	9d84b03a 	or	r2,r19,r22
   448b0:	1000fc1e 	bne	r2,zero,44ca4 <___vfprintf_internal_r+0x1298>
   448b4:	0039883a 	mov	fp,zero
   448b8:	00800084 	movi	r2,2
   448bc:	10803fcc 	andi	r2,r2,255
   448c0:	00c00044 	movi	r3,1
   448c4:	10c20f26 	beq	r2,r3,45104 <___vfprintf_internal_r+0x16f8>
   448c8:	00c00084 	movi	r3,2
   448cc:	10fd3326 	beq	r2,r3,43d9c <__alt_data_end+0xfffd1d9c>
   448d0:	003e0b06 	br	44100 <__alt_data_end+0xfffd2100>
   448d4:	d8c02017 	ldw	r3,128(sp)
   448d8:	003e7106 	br	442a0 <__alt_data_end+0xfffd22a0>
   448dc:	00801944 	movi	r2,101
   448e0:	14407e0e 	bge	r2,r17,44adc <___vfprintf_internal_r+0x10d0>
   448e4:	d9003617 	ldw	r4,216(sp)
   448e8:	d9403817 	ldw	r5,224(sp)
   448ec:	000d883a 	mov	r6,zero
   448f0:	000f883a 	mov	r7,zero
   448f4:	d8c03c15 	stw	r3,240(sp)
   448f8:	da003d15 	stw	r8,244(sp)
   448fc:	00506480 	call	50648 <__eqdf2>
   44900:	d8c03c17 	ldw	r3,240(sp)
   44904:	da003d17 	ldw	r8,244(sp)
   44908:	1000f71e 	bne	r2,zero,44ce8 <___vfprintf_internal_r+0x12dc>
   4490c:	d8801f17 	ldw	r2,124(sp)
   44910:	01000174 	movhi	r4,5
   44914:	211a2f04 	addi	r4,r4,26812
   44918:	18c00044 	addi	r3,r3,1
   4491c:	10800044 	addi	r2,r2,1
   44920:	41000015 	stw	r4,0(r8)
   44924:	01000044 	movi	r4,1
   44928:	41000115 	stw	r4,4(r8)
   4492c:	d8c02015 	stw	r3,128(sp)
   44930:	d8801f15 	stw	r2,124(sp)
   44934:	010001c4 	movi	r4,7
   44938:	2082b816 	blt	r4,r2,4541c <___vfprintf_internal_r+0x1a10>
   4493c:	42000204 	addi	r8,r8,8
   44940:	d8802617 	ldw	r2,152(sp)
   44944:	d9403317 	ldw	r5,204(sp)
   44948:	11400216 	blt	r2,r5,44954 <___vfprintf_internal_r+0xf48>
   4494c:	9080004c 	andi	r2,r18,1
   44950:	103eb326 	beq	r2,zero,44420 <__alt_data_end+0xfffd2420>
   44954:	d8803717 	ldw	r2,220(sp)
   44958:	d9003417 	ldw	r4,208(sp)
   4495c:	d9403717 	ldw	r5,220(sp)
   44960:	1887883a 	add	r3,r3,r2
   44964:	d8801f17 	ldw	r2,124(sp)
   44968:	41000015 	stw	r4,0(r8)
   4496c:	41400115 	stw	r5,4(r8)
   44970:	10800044 	addi	r2,r2,1
   44974:	d8c02015 	stw	r3,128(sp)
   44978:	d8801f15 	stw	r2,124(sp)
   4497c:	010001c4 	movi	r4,7
   44980:	20832916 	blt	r4,r2,45628 <___vfprintf_internal_r+0x1c1c>
   44984:	42000204 	addi	r8,r8,8
   44988:	d8803317 	ldw	r2,204(sp)
   4498c:	143fffc4 	addi	r16,r2,-1
   44990:	043ea30e 	bge	zero,r16,44420 <__alt_data_end+0xfffd2420>
   44994:	04400404 	movi	r17,16
   44998:	d8801f17 	ldw	r2,124(sp)
   4499c:	8c00880e 	bge	r17,r16,44bc0 <___vfprintf_internal_r+0x11b4>
   449a0:	01400174 	movhi	r5,5
   449a4:	295a3784 	addi	r5,r5,26846
   449a8:	d9402c15 	stw	r5,176(sp)
   449ac:	058001c4 	movi	r22,7
   449b0:	dcc02d17 	ldw	r19,180(sp)
   449b4:	00000306 	br	449c4 <___vfprintf_internal_r+0xfb8>
   449b8:	42000204 	addi	r8,r8,8
   449bc:	843ffc04 	addi	r16,r16,-16
   449c0:	8c00820e 	bge	r17,r16,44bcc <___vfprintf_internal_r+0x11c0>
   449c4:	18c00404 	addi	r3,r3,16
   449c8:	10800044 	addi	r2,r2,1
   449cc:	45000015 	stw	r20,0(r8)
   449d0:	44400115 	stw	r17,4(r8)
   449d4:	d8c02015 	stw	r3,128(sp)
   449d8:	d8801f15 	stw	r2,124(sp)
   449dc:	b0bff60e 	bge	r22,r2,449b8 <__alt_data_end+0xfffd29b8>
   449e0:	d9801e04 	addi	r6,sp,120
   449e4:	b80b883a 	mov	r5,r23
   449e8:	9809883a 	mov	r4,r19
   449ec:	004c8c40 	call	4c8c4 <__sprint_r>
   449f0:	103d0a1e 	bne	r2,zero,43e1c <__alt_data_end+0xfffd1e1c>
   449f4:	d8c02017 	ldw	r3,128(sp)
   449f8:	d8801f17 	ldw	r2,124(sp)
   449fc:	da000404 	addi	r8,sp,16
   44a00:	003fee06 	br	449bc <__alt_data_end+0xfffd29bc>
   44a04:	d9403117 	ldw	r5,196(sp)
   44a08:	d8802917 	ldw	r2,164(sp)
   44a0c:	28adc83a 	sub	r22,r5,r2
   44a10:	05be410e 	bge	zero,r22,44318 <__alt_data_end+0xfffd2318>
   44a14:	07000404 	movi	fp,16
   44a18:	d8801f17 	ldw	r2,124(sp)
   44a1c:	e5838f0e 	bge	fp,r22,4585c <___vfprintf_internal_r+0x1e50>
   44a20:	01400174 	movhi	r5,5
   44a24:	295a3784 	addi	r5,r5,26846
   44a28:	dc403015 	stw	r17,192(sp)
   44a2c:	d9402c15 	stw	r5,176(sp)
   44a30:	b023883a 	mov	r17,r22
   44a34:	04c001c4 	movi	r19,7
   44a38:	a82d883a 	mov	r22,r21
   44a3c:	902b883a 	mov	r21,r18
   44a40:	8025883a 	mov	r18,r16
   44a44:	dc002d17 	ldw	r16,180(sp)
   44a48:	00000306 	br	44a58 <___vfprintf_internal_r+0x104c>
   44a4c:	8c7ffc04 	addi	r17,r17,-16
   44a50:	42000204 	addi	r8,r8,8
   44a54:	e440110e 	bge	fp,r17,44a9c <___vfprintf_internal_r+0x1090>
   44a58:	18c00404 	addi	r3,r3,16
   44a5c:	10800044 	addi	r2,r2,1
   44a60:	45000015 	stw	r20,0(r8)
   44a64:	47000115 	stw	fp,4(r8)
   44a68:	d8c02015 	stw	r3,128(sp)
   44a6c:	d8801f15 	stw	r2,124(sp)
   44a70:	98bff60e 	bge	r19,r2,44a4c <__alt_data_end+0xfffd2a4c>
   44a74:	d9801e04 	addi	r6,sp,120
   44a78:	b80b883a 	mov	r5,r23
   44a7c:	8009883a 	mov	r4,r16
   44a80:	004c8c40 	call	4c8c4 <__sprint_r>
   44a84:	103ce51e 	bne	r2,zero,43e1c <__alt_data_end+0xfffd1e1c>
   44a88:	8c7ffc04 	addi	r17,r17,-16
   44a8c:	d8c02017 	ldw	r3,128(sp)
   44a90:	d8801f17 	ldw	r2,124(sp)
   44a94:	da000404 	addi	r8,sp,16
   44a98:	e47fef16 	blt	fp,r17,44a58 <__alt_data_end+0xfffd2a58>
   44a9c:	9021883a 	mov	r16,r18
   44aa0:	a825883a 	mov	r18,r21
   44aa4:	b02b883a 	mov	r21,r22
   44aa8:	882d883a 	mov	r22,r17
   44aac:	dc403017 	ldw	r17,192(sp)
   44ab0:	d9002c17 	ldw	r4,176(sp)
   44ab4:	1d87883a 	add	r3,r3,r22
   44ab8:	10800044 	addi	r2,r2,1
   44abc:	41000015 	stw	r4,0(r8)
   44ac0:	45800115 	stw	r22,4(r8)
   44ac4:	d8c02015 	stw	r3,128(sp)
   44ac8:	d8801f15 	stw	r2,124(sp)
   44acc:	010001c4 	movi	r4,7
   44ad0:	20818e16 	blt	r4,r2,4510c <___vfprintf_internal_r+0x1700>
   44ad4:	42000204 	addi	r8,r8,8
   44ad8:	003e0f06 	br	44318 <__alt_data_end+0xfffd2318>
   44adc:	d9403317 	ldw	r5,204(sp)
   44ae0:	00800044 	movi	r2,1
   44ae4:	18c00044 	addi	r3,r3,1
   44ae8:	1141530e 	bge	r2,r5,45038 <___vfprintf_internal_r+0x162c>
   44aec:	dc401f17 	ldw	r17,124(sp)
   44af0:	00800044 	movi	r2,1
   44af4:	40800115 	stw	r2,4(r8)
   44af8:	8c400044 	addi	r17,r17,1
   44afc:	44000015 	stw	r16,0(r8)
   44b00:	d8c02015 	stw	r3,128(sp)
   44b04:	dc401f15 	stw	r17,124(sp)
   44b08:	008001c4 	movi	r2,7
   44b0c:	14416b16 	blt	r2,r17,450bc <___vfprintf_internal_r+0x16b0>
   44b10:	42000204 	addi	r8,r8,8
   44b14:	d8803717 	ldw	r2,220(sp)
   44b18:	d9003417 	ldw	r4,208(sp)
   44b1c:	8c400044 	addi	r17,r17,1
   44b20:	10c7883a 	add	r3,r2,r3
   44b24:	40800115 	stw	r2,4(r8)
   44b28:	41000015 	stw	r4,0(r8)
   44b2c:	d8c02015 	stw	r3,128(sp)
   44b30:	dc401f15 	stw	r17,124(sp)
   44b34:	008001c4 	movi	r2,7
   44b38:	14416916 	blt	r2,r17,450e0 <___vfprintf_internal_r+0x16d4>
   44b3c:	45800204 	addi	r22,r8,8
   44b40:	d9003617 	ldw	r4,216(sp)
   44b44:	d9403817 	ldw	r5,224(sp)
   44b48:	000d883a 	mov	r6,zero
   44b4c:	000f883a 	mov	r7,zero
   44b50:	d8c03c15 	stw	r3,240(sp)
   44b54:	00506480 	call	50648 <__eqdf2>
   44b58:	d8c03c17 	ldw	r3,240(sp)
   44b5c:	1000bc26 	beq	r2,zero,44e50 <___vfprintf_internal_r+0x1444>
   44b60:	d9403317 	ldw	r5,204(sp)
   44b64:	84000044 	addi	r16,r16,1
   44b68:	8c400044 	addi	r17,r17,1
   44b6c:	28bfffc4 	addi	r2,r5,-1
   44b70:	1887883a 	add	r3,r3,r2
   44b74:	b0800115 	stw	r2,4(r22)
   44b78:	b4000015 	stw	r16,0(r22)
   44b7c:	d8c02015 	stw	r3,128(sp)
   44b80:	dc401f15 	stw	r17,124(sp)
   44b84:	008001c4 	movi	r2,7
   44b88:	14414316 	blt	r2,r17,45098 <___vfprintf_internal_r+0x168c>
   44b8c:	b5800204 	addi	r22,r22,8
   44b90:	d9003a17 	ldw	r4,232(sp)
   44b94:	df0022c4 	addi	fp,sp,139
   44b98:	8c400044 	addi	r17,r17,1
   44b9c:	20c7883a 	add	r3,r4,r3
   44ba0:	b7000015 	stw	fp,0(r22)
   44ba4:	b1000115 	stw	r4,4(r22)
   44ba8:	d8c02015 	stw	r3,128(sp)
   44bac:	dc401f15 	stw	r17,124(sp)
   44bb0:	008001c4 	movi	r2,7
   44bb4:	14400e16 	blt	r2,r17,44bf0 <___vfprintf_internal_r+0x11e4>
   44bb8:	b2000204 	addi	r8,r22,8
   44bbc:	003e1806 	br	44420 <__alt_data_end+0xfffd2420>
   44bc0:	01000174 	movhi	r4,5
   44bc4:	211a3784 	addi	r4,r4,26846
   44bc8:	d9002c15 	stw	r4,176(sp)
   44bcc:	d9002c17 	ldw	r4,176(sp)
   44bd0:	1c07883a 	add	r3,r3,r16
   44bd4:	44000115 	stw	r16,4(r8)
   44bd8:	41000015 	stw	r4,0(r8)
   44bdc:	10800044 	addi	r2,r2,1
   44be0:	d8c02015 	stw	r3,128(sp)
   44be4:	d8801f15 	stw	r2,124(sp)
   44be8:	010001c4 	movi	r4,7
   44bec:	20be0b0e 	bge	r4,r2,4441c <__alt_data_end+0xfffd241c>
   44bf0:	d9002d17 	ldw	r4,180(sp)
   44bf4:	d9801e04 	addi	r6,sp,120
   44bf8:	b80b883a 	mov	r5,r23
   44bfc:	004c8c40 	call	4c8c4 <__sprint_r>
   44c00:	103c861e 	bne	r2,zero,43e1c <__alt_data_end+0xfffd1e1c>
   44c04:	d8c02017 	ldw	r3,128(sp)
   44c08:	da000404 	addi	r8,sp,16
   44c0c:	003e0406 	br	44420 <__alt_data_end+0xfffd2420>
   44c10:	d9002d17 	ldw	r4,180(sp)
   44c14:	d9801e04 	addi	r6,sp,120
   44c18:	b80b883a 	mov	r5,r23
   44c1c:	004c8c40 	call	4c8c4 <__sprint_r>
   44c20:	103e3b26 	beq	r2,zero,44510 <__alt_data_end+0xfffd2510>
   44c24:	003c7d06 	br	43e1c <__alt_data_end+0xfffd1e1c>
   44c28:	d9002d17 	ldw	r4,180(sp)
   44c2c:	d9801e04 	addi	r6,sp,120
   44c30:	b80b883a 	mov	r5,r23
   44c34:	004c8c40 	call	4c8c4 <__sprint_r>
   44c38:	103c781e 	bne	r2,zero,43e1c <__alt_data_end+0xfffd1e1c>
   44c3c:	d8c02017 	ldw	r3,128(sp)
   44c40:	da000404 	addi	r8,sp,16
   44c44:	003de906 	br	443ec <__alt_data_end+0xfffd23ec>
   44c48:	d9002d17 	ldw	r4,180(sp)
   44c4c:	d9801e04 	addi	r6,sp,120
   44c50:	b80b883a 	mov	r5,r23
   44c54:	004c8c40 	call	4c8c4 <__sprint_r>
   44c58:	103c701e 	bne	r2,zero,43e1c <__alt_data_end+0xfffd1e1c>
   44c5c:	d8c02017 	ldw	r3,128(sp)
   44c60:	da000404 	addi	r8,sp,16
   44c64:	003d9b06 	br	442d4 <__alt_data_end+0xfffd22d4>
   44c68:	d9002d17 	ldw	r4,180(sp)
   44c6c:	d9801e04 	addi	r6,sp,120
   44c70:	b80b883a 	mov	r5,r23
   44c74:	004c8c40 	call	4c8c4 <__sprint_r>
   44c78:	103c681e 	bne	r2,zero,43e1c <__alt_data_end+0xfffd1e1c>
   44c7c:	d8c02017 	ldw	r3,128(sp)
   44c80:	da000404 	addi	r8,sp,16
   44c84:	003da106 	br	4430c <__alt_data_end+0xfffd230c>
   44c88:	d9402a17 	ldw	r5,168(sp)
   44c8c:	d8002785 	stb	zero,158(sp)
   44c90:	283f0616 	blt	r5,zero,448ac <__alt_data_end+0xfffd28ac>
   44c94:	00ffdfc4 	movi	r3,-129
   44c98:	9d84b03a 	or	r2,r19,r22
   44c9c:	90e4703a 	and	r18,r18,r3
   44ca0:	103c3b26 	beq	r2,zero,43d90 <__alt_data_end+0xfffd1d90>
   44ca4:	0039883a 	mov	fp,zero
   44ca8:	003e5806 	br	4460c <__alt_data_end+0xfffd260c>
   44cac:	9080040c 	andi	r2,r18,16
   44cb0:	1001b326 	beq	r2,zero,45380 <___vfprintf_internal_r+0x1974>
   44cb4:	d8c02e17 	ldw	r3,184(sp)
   44cb8:	d9002a17 	ldw	r4,168(sp)
   44cbc:	d8002785 	stb	zero,158(sp)
   44cc0:	18800104 	addi	r2,r3,4
   44cc4:	1cc00017 	ldw	r19,0(r3)
   44cc8:	002d883a 	mov	r22,zero
   44ccc:	2001b516 	blt	r4,zero,453a4 <___vfprintf_internal_r+0x1998>
   44cd0:	00ffdfc4 	movi	r3,-129
   44cd4:	d8802e15 	stw	r2,184(sp)
   44cd8:	90e4703a 	and	r18,r18,r3
   44cdc:	983d0526 	beq	r19,zero,440f4 <__alt_data_end+0xfffd20f4>
   44ce0:	0039883a 	mov	fp,zero
   44ce4:	003d0806 	br	44108 <__alt_data_end+0xfffd2108>
   44ce8:	dc402617 	ldw	r17,152(sp)
   44cec:	0441d30e 	bge	zero,r17,4543c <___vfprintf_internal_r+0x1a30>
   44cf0:	dc403217 	ldw	r17,200(sp)
   44cf4:	d8803317 	ldw	r2,204(sp)
   44cf8:	1440010e 	bge	r2,r17,44d00 <___vfprintf_internal_r+0x12f4>
   44cfc:	1023883a 	mov	r17,r2
   44d00:	04400a0e 	bge	zero,r17,44d2c <___vfprintf_internal_r+0x1320>
   44d04:	d8801f17 	ldw	r2,124(sp)
   44d08:	1c47883a 	add	r3,r3,r17
   44d0c:	44000015 	stw	r16,0(r8)
   44d10:	10800044 	addi	r2,r2,1
   44d14:	44400115 	stw	r17,4(r8)
   44d18:	d8c02015 	stw	r3,128(sp)
   44d1c:	d8801f15 	stw	r2,124(sp)
   44d20:	010001c4 	movi	r4,7
   44d24:	20826516 	blt	r4,r2,456bc <___vfprintf_internal_r+0x1cb0>
   44d28:	42000204 	addi	r8,r8,8
   44d2c:	88026116 	blt	r17,zero,456b4 <___vfprintf_internal_r+0x1ca8>
   44d30:	d9003217 	ldw	r4,200(sp)
   44d34:	2463c83a 	sub	r17,r4,r17
   44d38:	04407b0e 	bge	zero,r17,44f28 <___vfprintf_internal_r+0x151c>
   44d3c:	05800404 	movi	r22,16
   44d40:	d8801f17 	ldw	r2,124(sp)
   44d44:	b4419d0e 	bge	r22,r17,453bc <___vfprintf_internal_r+0x19b0>
   44d48:	01000174 	movhi	r4,5
   44d4c:	211a3784 	addi	r4,r4,26846
   44d50:	d9002c15 	stw	r4,176(sp)
   44d54:	070001c4 	movi	fp,7
   44d58:	dcc02d17 	ldw	r19,180(sp)
   44d5c:	00000306 	br	44d6c <___vfprintf_internal_r+0x1360>
   44d60:	42000204 	addi	r8,r8,8
   44d64:	8c7ffc04 	addi	r17,r17,-16
   44d68:	b441970e 	bge	r22,r17,453c8 <___vfprintf_internal_r+0x19bc>
   44d6c:	18c00404 	addi	r3,r3,16
   44d70:	10800044 	addi	r2,r2,1
   44d74:	45000015 	stw	r20,0(r8)
   44d78:	45800115 	stw	r22,4(r8)
   44d7c:	d8c02015 	stw	r3,128(sp)
   44d80:	d8801f15 	stw	r2,124(sp)
   44d84:	e0bff60e 	bge	fp,r2,44d60 <__alt_data_end+0xfffd2d60>
   44d88:	d9801e04 	addi	r6,sp,120
   44d8c:	b80b883a 	mov	r5,r23
   44d90:	9809883a 	mov	r4,r19
   44d94:	004c8c40 	call	4c8c4 <__sprint_r>
   44d98:	103c201e 	bne	r2,zero,43e1c <__alt_data_end+0xfffd1e1c>
   44d9c:	d8c02017 	ldw	r3,128(sp)
   44da0:	d8801f17 	ldw	r2,124(sp)
   44da4:	da000404 	addi	r8,sp,16
   44da8:	003fee06 	br	44d64 <__alt_data_end+0xfffd2d64>
   44dac:	d9002d17 	ldw	r4,180(sp)
   44db0:	d9801e04 	addi	r6,sp,120
   44db4:	b80b883a 	mov	r5,r23
   44db8:	004c8c40 	call	4c8c4 <__sprint_r>
   44dbc:	103c171e 	bne	r2,zero,43e1c <__alt_data_end+0xfffd1e1c>
   44dc0:	d8c02017 	ldw	r3,128(sp)
   44dc4:	df002787 	ldb	fp,158(sp)
   44dc8:	da000404 	addi	r8,sp,16
   44dcc:	003d3406 	br	442a0 <__alt_data_end+0xfffd22a0>
   44dd0:	9080040c 	andi	r2,r18,16
   44dd4:	10016126 	beq	r2,zero,4535c <___vfprintf_internal_r+0x1950>
   44dd8:	d9402e17 	ldw	r5,184(sp)
   44ddc:	2cc00017 	ldw	r19,0(r5)
   44de0:	29400104 	addi	r5,r5,4
   44de4:	d9402e15 	stw	r5,184(sp)
   44de8:	982dd7fa 	srai	r22,r19,31
   44dec:	b005883a 	mov	r2,r22
   44df0:	003c5a06 	br	43f5c <__alt_data_end+0xfffd1f5c>
   44df4:	9080040c 	andi	r2,r18,16
   44df8:	10003526 	beq	r2,zero,44ed0 <___vfprintf_internal_r+0x14c4>
   44dfc:	d8c02e17 	ldw	r3,184(sp)
   44e00:	d9002a17 	ldw	r4,168(sp)
   44e04:	d8002785 	stb	zero,158(sp)
   44e08:	18800104 	addi	r2,r3,4
   44e0c:	1cc00017 	ldw	r19,0(r3)
   44e10:	002d883a 	mov	r22,zero
   44e14:	20003716 	blt	r4,zero,44ef4 <___vfprintf_internal_r+0x14e8>
   44e18:	00ffdfc4 	movi	r3,-129
   44e1c:	d8802e15 	stw	r2,184(sp)
   44e20:	90e4703a 	and	r18,r18,r3
   44e24:	0039883a 	mov	fp,zero
   44e28:	983dd426 	beq	r19,zero,4457c <__alt_data_end+0xfffd257c>
   44e2c:	00800244 	movi	r2,9
   44e30:	14fc5336 	bltu	r2,r19,43f80 <__alt_data_end+0xfffd1f80>
   44e34:	d8c02817 	ldw	r3,160(sp)
   44e38:	dc001dc4 	addi	r16,sp,119
   44e3c:	9cc00c04 	addi	r19,r19,48
   44e40:	1c07c83a 	sub	r3,r3,r16
   44e44:	dcc01dc5 	stb	r19,119(sp)
   44e48:	d8c02b15 	stw	r3,172(sp)
   44e4c:	003cc606 	br	44168 <__alt_data_end+0xfffd2168>
   44e50:	d8803317 	ldw	r2,204(sp)
   44e54:	143fffc4 	addi	r16,r2,-1
   44e58:	043f4d0e 	bge	zero,r16,44b90 <__alt_data_end+0xfffd2b90>
   44e5c:	07000404 	movi	fp,16
   44e60:	e400810e 	bge	fp,r16,45068 <___vfprintf_internal_r+0x165c>
   44e64:	01400174 	movhi	r5,5
   44e68:	295a3784 	addi	r5,r5,26846
   44e6c:	d9402c15 	stw	r5,176(sp)
   44e70:	01c001c4 	movi	r7,7
   44e74:	dcc02d17 	ldw	r19,180(sp)
   44e78:	00000306 	br	44e88 <___vfprintf_internal_r+0x147c>
   44e7c:	b5800204 	addi	r22,r22,8
   44e80:	843ffc04 	addi	r16,r16,-16
   44e84:	e4007b0e 	bge	fp,r16,45074 <___vfprintf_internal_r+0x1668>
   44e88:	18c00404 	addi	r3,r3,16
   44e8c:	8c400044 	addi	r17,r17,1
   44e90:	b5000015 	stw	r20,0(r22)
   44e94:	b7000115 	stw	fp,4(r22)
   44e98:	d8c02015 	stw	r3,128(sp)
   44e9c:	dc401f15 	stw	r17,124(sp)
   44ea0:	3c7ff60e 	bge	r7,r17,44e7c <__alt_data_end+0xfffd2e7c>
   44ea4:	d9801e04 	addi	r6,sp,120
   44ea8:	b80b883a 	mov	r5,r23
   44eac:	9809883a 	mov	r4,r19
   44eb0:	d9c03c15 	stw	r7,240(sp)
   44eb4:	004c8c40 	call	4c8c4 <__sprint_r>
   44eb8:	d9c03c17 	ldw	r7,240(sp)
   44ebc:	103bd71e 	bne	r2,zero,43e1c <__alt_data_end+0xfffd1e1c>
   44ec0:	d8c02017 	ldw	r3,128(sp)
   44ec4:	dc401f17 	ldw	r17,124(sp)
   44ec8:	dd800404 	addi	r22,sp,16
   44ecc:	003fec06 	br	44e80 <__alt_data_end+0xfffd2e80>
   44ed0:	9080100c 	andi	r2,r18,64
   44ed4:	d8002785 	stb	zero,158(sp)
   44ed8:	10010e26 	beq	r2,zero,45314 <___vfprintf_internal_r+0x1908>
   44edc:	d9402e17 	ldw	r5,184(sp)
   44ee0:	d8c02a17 	ldw	r3,168(sp)
   44ee4:	002d883a 	mov	r22,zero
   44ee8:	28800104 	addi	r2,r5,4
   44eec:	2cc0000b 	ldhu	r19,0(r5)
   44ef0:	183fc90e 	bge	r3,zero,44e18 <__alt_data_end+0xfffd2e18>
   44ef4:	d8802e15 	stw	r2,184(sp)
   44ef8:	0039883a 	mov	fp,zero
   44efc:	9d84b03a 	or	r2,r19,r22
   44f00:	103c1e1e 	bne	r2,zero,43f7c <__alt_data_end+0xfffd1f7c>
   44f04:	00800044 	movi	r2,1
   44f08:	003e6c06 	br	448bc <__alt_data_end+0xfffd28bc>
   44f0c:	d9002d17 	ldw	r4,180(sp)
   44f10:	d9801e04 	addi	r6,sp,120
   44f14:	b80b883a 	mov	r5,r23
   44f18:	004c8c40 	call	4c8c4 <__sprint_r>
   44f1c:	103bbf1e 	bne	r2,zero,43e1c <__alt_data_end+0xfffd1e1c>
   44f20:	d8c02017 	ldw	r3,128(sp)
   44f24:	da000404 	addi	r8,sp,16
   44f28:	d9003217 	ldw	r4,200(sp)
   44f2c:	d8802617 	ldw	r2,152(sp)
   44f30:	d9403317 	ldw	r5,204(sp)
   44f34:	8123883a 	add	r17,r16,r4
   44f38:	11400216 	blt	r2,r5,44f44 <___vfprintf_internal_r+0x1538>
   44f3c:	9100004c 	andi	r4,r18,1
   44f40:	20000d26 	beq	r4,zero,44f78 <___vfprintf_internal_r+0x156c>
   44f44:	d9003717 	ldw	r4,220(sp)
   44f48:	d9403417 	ldw	r5,208(sp)
   44f4c:	1907883a 	add	r3,r3,r4
   44f50:	d9001f17 	ldw	r4,124(sp)
   44f54:	41400015 	stw	r5,0(r8)
   44f58:	d9403717 	ldw	r5,220(sp)
   44f5c:	21000044 	addi	r4,r4,1
   44f60:	d8c02015 	stw	r3,128(sp)
   44f64:	41400115 	stw	r5,4(r8)
   44f68:	d9001f15 	stw	r4,124(sp)
   44f6c:	014001c4 	movi	r5,7
   44f70:	2901e816 	blt	r5,r4,45714 <___vfprintf_internal_r+0x1d08>
   44f74:	42000204 	addi	r8,r8,8
   44f78:	d9003317 	ldw	r4,204(sp)
   44f7c:	8121883a 	add	r16,r16,r4
   44f80:	2085c83a 	sub	r2,r4,r2
   44f84:	8461c83a 	sub	r16,r16,r17
   44f88:	1400010e 	bge	r2,r16,44f90 <___vfprintf_internal_r+0x1584>
   44f8c:	1021883a 	mov	r16,r2
   44f90:	04000a0e 	bge	zero,r16,44fbc <___vfprintf_internal_r+0x15b0>
   44f94:	d9001f17 	ldw	r4,124(sp)
   44f98:	1c07883a 	add	r3,r3,r16
   44f9c:	44400015 	stw	r17,0(r8)
   44fa0:	21000044 	addi	r4,r4,1
   44fa4:	44000115 	stw	r16,4(r8)
   44fa8:	d8c02015 	stw	r3,128(sp)
   44fac:	d9001f15 	stw	r4,124(sp)
   44fb0:	014001c4 	movi	r5,7
   44fb4:	2901fb16 	blt	r5,r4,457a4 <___vfprintf_internal_r+0x1d98>
   44fb8:	42000204 	addi	r8,r8,8
   44fbc:	8001f716 	blt	r16,zero,4579c <___vfprintf_internal_r+0x1d90>
   44fc0:	1421c83a 	sub	r16,r2,r16
   44fc4:	043d160e 	bge	zero,r16,44420 <__alt_data_end+0xfffd2420>
   44fc8:	04400404 	movi	r17,16
   44fcc:	d8801f17 	ldw	r2,124(sp)
   44fd0:	8c3efb0e 	bge	r17,r16,44bc0 <__alt_data_end+0xfffd2bc0>
   44fd4:	01400174 	movhi	r5,5
   44fd8:	295a3784 	addi	r5,r5,26846
   44fdc:	d9402c15 	stw	r5,176(sp)
   44fe0:	058001c4 	movi	r22,7
   44fe4:	dcc02d17 	ldw	r19,180(sp)
   44fe8:	00000306 	br	44ff8 <___vfprintf_internal_r+0x15ec>
   44fec:	42000204 	addi	r8,r8,8
   44ff0:	843ffc04 	addi	r16,r16,-16
   44ff4:	8c3ef50e 	bge	r17,r16,44bcc <__alt_data_end+0xfffd2bcc>
   44ff8:	18c00404 	addi	r3,r3,16
   44ffc:	10800044 	addi	r2,r2,1
   45000:	45000015 	stw	r20,0(r8)
   45004:	44400115 	stw	r17,4(r8)
   45008:	d8c02015 	stw	r3,128(sp)
   4500c:	d8801f15 	stw	r2,124(sp)
   45010:	b0bff60e 	bge	r22,r2,44fec <__alt_data_end+0xfffd2fec>
   45014:	d9801e04 	addi	r6,sp,120
   45018:	b80b883a 	mov	r5,r23
   4501c:	9809883a 	mov	r4,r19
   45020:	004c8c40 	call	4c8c4 <__sprint_r>
   45024:	103b7d1e 	bne	r2,zero,43e1c <__alt_data_end+0xfffd1e1c>
   45028:	d8c02017 	ldw	r3,128(sp)
   4502c:	d8801f17 	ldw	r2,124(sp)
   45030:	da000404 	addi	r8,sp,16
   45034:	003fee06 	br	44ff0 <__alt_data_end+0xfffd2ff0>
   45038:	9088703a 	and	r4,r18,r2
   4503c:	203eab1e 	bne	r4,zero,44aec <__alt_data_end+0xfffd2aec>
   45040:	dc401f17 	ldw	r17,124(sp)
   45044:	40800115 	stw	r2,4(r8)
   45048:	44000015 	stw	r16,0(r8)
   4504c:	8c400044 	addi	r17,r17,1
   45050:	d8c02015 	stw	r3,128(sp)
   45054:	dc401f15 	stw	r17,124(sp)
   45058:	008001c4 	movi	r2,7
   4505c:	14400e16 	blt	r2,r17,45098 <___vfprintf_internal_r+0x168c>
   45060:	45800204 	addi	r22,r8,8
   45064:	003eca06 	br	44b90 <__alt_data_end+0xfffd2b90>
   45068:	01000174 	movhi	r4,5
   4506c:	211a3784 	addi	r4,r4,26846
   45070:	d9002c15 	stw	r4,176(sp)
   45074:	d8802c17 	ldw	r2,176(sp)
   45078:	1c07883a 	add	r3,r3,r16
   4507c:	8c400044 	addi	r17,r17,1
   45080:	b0800015 	stw	r2,0(r22)
   45084:	b4000115 	stw	r16,4(r22)
   45088:	d8c02015 	stw	r3,128(sp)
   4508c:	dc401f15 	stw	r17,124(sp)
   45090:	008001c4 	movi	r2,7
   45094:	147ebd0e 	bge	r2,r17,44b8c <__alt_data_end+0xfffd2b8c>
   45098:	d9002d17 	ldw	r4,180(sp)
   4509c:	d9801e04 	addi	r6,sp,120
   450a0:	b80b883a 	mov	r5,r23
   450a4:	004c8c40 	call	4c8c4 <__sprint_r>
   450a8:	103b5c1e 	bne	r2,zero,43e1c <__alt_data_end+0xfffd1e1c>
   450ac:	d8c02017 	ldw	r3,128(sp)
   450b0:	dc401f17 	ldw	r17,124(sp)
   450b4:	dd800404 	addi	r22,sp,16
   450b8:	003eb506 	br	44b90 <__alt_data_end+0xfffd2b90>
   450bc:	d9002d17 	ldw	r4,180(sp)
   450c0:	d9801e04 	addi	r6,sp,120
   450c4:	b80b883a 	mov	r5,r23
   450c8:	004c8c40 	call	4c8c4 <__sprint_r>
   450cc:	103b531e 	bne	r2,zero,43e1c <__alt_data_end+0xfffd1e1c>
   450d0:	d8c02017 	ldw	r3,128(sp)
   450d4:	dc401f17 	ldw	r17,124(sp)
   450d8:	da000404 	addi	r8,sp,16
   450dc:	003e8d06 	br	44b14 <__alt_data_end+0xfffd2b14>
   450e0:	d9002d17 	ldw	r4,180(sp)
   450e4:	d9801e04 	addi	r6,sp,120
   450e8:	b80b883a 	mov	r5,r23
   450ec:	004c8c40 	call	4c8c4 <__sprint_r>
   450f0:	103b4a1e 	bne	r2,zero,43e1c <__alt_data_end+0xfffd1e1c>
   450f4:	d8c02017 	ldw	r3,128(sp)
   450f8:	dc401f17 	ldw	r17,124(sp)
   450fc:	dd800404 	addi	r22,sp,16
   45100:	003e8f06 	br	44b40 <__alt_data_end+0xfffd2b40>
   45104:	0027883a 	mov	r19,zero
   45108:	003f4a06 	br	44e34 <__alt_data_end+0xfffd2e34>
   4510c:	d9002d17 	ldw	r4,180(sp)
   45110:	d9801e04 	addi	r6,sp,120
   45114:	b80b883a 	mov	r5,r23
   45118:	004c8c40 	call	4c8c4 <__sprint_r>
   4511c:	103b3f1e 	bne	r2,zero,43e1c <__alt_data_end+0xfffd1e1c>
   45120:	d8c02017 	ldw	r3,128(sp)
   45124:	da000404 	addi	r8,sp,16
   45128:	003c7b06 	br	44318 <__alt_data_end+0xfffd2318>
   4512c:	d9402a17 	ldw	r5,168(sp)
   45130:	04e7c83a 	sub	r19,zero,r19
   45134:	07000b44 	movi	fp,45
   45138:	9804c03a 	cmpne	r2,r19,zero
   4513c:	05adc83a 	sub	r22,zero,r22
   45140:	df002785 	stb	fp,158(sp)
   45144:	b0adc83a 	sub	r22,r22,r2
   45148:	28017b16 	blt	r5,zero,45738 <___vfprintf_internal_r+0x1d2c>
   4514c:	00bfdfc4 	movi	r2,-129
   45150:	90a4703a 	and	r18,r18,r2
   45154:	003b8906 	br	43f7c <__alt_data_end+0xfffd1f7c>
   45158:	d9003617 	ldw	r4,216(sp)
   4515c:	d9403817 	ldw	r5,224(sp)
   45160:	da003d15 	stw	r8,244(sp)
   45164:	004af780 	call	4af78 <__fpclassifyd>
   45168:	da003d17 	ldw	r8,244(sp)
   4516c:	1000f026 	beq	r2,zero,45530 <___vfprintf_internal_r+0x1b24>
   45170:	d9002a17 	ldw	r4,168(sp)
   45174:	05bff7c4 	movi	r22,-33
   45178:	00bfffc4 	movi	r2,-1
   4517c:	8dac703a 	and	r22,r17,r22
   45180:	20820026 	beq	r4,r2,45984 <___vfprintf_internal_r+0x1f78>
   45184:	008011c4 	movi	r2,71
   45188:	b081f726 	beq	r22,r2,45968 <___vfprintf_internal_r+0x1f5c>
   4518c:	d9003817 	ldw	r4,224(sp)
   45190:	90c04014 	ori	r3,r18,256
   45194:	d8c02c15 	stw	r3,176(sp)
   45198:	20021516 	blt	r4,zero,459f0 <___vfprintf_internal_r+0x1fe4>
   4519c:	dcc03817 	ldw	r19,224(sp)
   451a0:	d8002905 	stb	zero,164(sp)
   451a4:	00801984 	movi	r2,102
   451a8:	8881f926 	beq	r17,r2,45990 <___vfprintf_internal_r+0x1f84>
   451ac:	00801184 	movi	r2,70
   451b0:	88821c26 	beq	r17,r2,45a24 <___vfprintf_internal_r+0x2018>
   451b4:	00801144 	movi	r2,69
   451b8:	b081ef26 	beq	r22,r2,45978 <___vfprintf_internal_r+0x1f6c>
   451bc:	d8c02a17 	ldw	r3,168(sp)
   451c0:	d8802104 	addi	r2,sp,132
   451c4:	d8800315 	stw	r2,12(sp)
   451c8:	d9403617 	ldw	r5,216(sp)
   451cc:	d8802504 	addi	r2,sp,148
   451d0:	d9002d17 	ldw	r4,180(sp)
   451d4:	d8800215 	stw	r2,8(sp)
   451d8:	d8802604 	addi	r2,sp,152
   451dc:	d8c00015 	stw	r3,0(sp)
   451e0:	d8800115 	stw	r2,4(sp)
   451e4:	01c00084 	movi	r7,2
   451e8:	980d883a 	mov	r6,r19
   451ec:	d8c03c15 	stw	r3,240(sp)
   451f0:	da003d15 	stw	r8,244(sp)
   451f4:	004613c0 	call	4613c <_dtoa_r>
   451f8:	1021883a 	mov	r16,r2
   451fc:	008019c4 	movi	r2,103
   45200:	d8c03c17 	ldw	r3,240(sp)
   45204:	da003d17 	ldw	r8,244(sp)
   45208:	88817126 	beq	r17,r2,457d0 <___vfprintf_internal_r+0x1dc4>
   4520c:	008011c4 	movi	r2,71
   45210:	88829126 	beq	r17,r2,45c58 <___vfprintf_internal_r+0x224c>
   45214:	80f9883a 	add	fp,r16,r3
   45218:	d9003617 	ldw	r4,216(sp)
   4521c:	000d883a 	mov	r6,zero
   45220:	000f883a 	mov	r7,zero
   45224:	980b883a 	mov	r5,r19
   45228:	da003d15 	stw	r8,244(sp)
   4522c:	00506480 	call	50648 <__eqdf2>
   45230:	da003d17 	ldw	r8,244(sp)
   45234:	10018d26 	beq	r2,zero,4586c <___vfprintf_internal_r+0x1e60>
   45238:	d8802117 	ldw	r2,132(sp)
   4523c:	1700062e 	bgeu	r2,fp,45258 <___vfprintf_internal_r+0x184c>
   45240:	01000c04 	movi	r4,48
   45244:	10c00044 	addi	r3,r2,1
   45248:	d8c02115 	stw	r3,132(sp)
   4524c:	11000005 	stb	r4,0(r2)
   45250:	d8802117 	ldw	r2,132(sp)
   45254:	173ffb36 	bltu	r2,fp,45244 <__alt_data_end+0xfffd3244>
   45258:	1405c83a 	sub	r2,r2,r16
   4525c:	d8803315 	stw	r2,204(sp)
   45260:	008011c4 	movi	r2,71
   45264:	b0817626 	beq	r22,r2,45840 <___vfprintf_internal_r+0x1e34>
   45268:	00801944 	movi	r2,101
   4526c:	1442800e 	bge	r2,r17,45c70 <___vfprintf_internal_r+0x2264>
   45270:	d8c02617 	ldw	r3,152(sp)
   45274:	00801984 	movi	r2,102
   45278:	d8c03215 	stw	r3,200(sp)
   4527c:	8881fe26 	beq	r17,r2,45a78 <___vfprintf_internal_r+0x206c>
   45280:	d8c03217 	ldw	r3,200(sp)
   45284:	d9003317 	ldw	r4,204(sp)
   45288:	1901dd16 	blt	r3,r4,45a00 <___vfprintf_internal_r+0x1ff4>
   4528c:	9480004c 	andi	r18,r18,1
   45290:	90022b1e 	bne	r18,zero,45b40 <___vfprintf_internal_r+0x2134>
   45294:	1805883a 	mov	r2,r3
   45298:	18028316 	blt	r3,zero,45ca8 <___vfprintf_internal_r+0x229c>
   4529c:	d8c03217 	ldw	r3,200(sp)
   452a0:	044019c4 	movi	r17,103
   452a4:	d8c02b15 	stw	r3,172(sp)
   452a8:	df002907 	ldb	fp,164(sp)
   452ac:	e001531e 	bne	fp,zero,457fc <___vfprintf_internal_r+0x1df0>
   452b0:	df002783 	ldbu	fp,158(sp)
   452b4:	d8802915 	stw	r2,164(sp)
   452b8:	dc802c17 	ldw	r18,176(sp)
   452bc:	d8002a15 	stw	zero,168(sp)
   452c0:	003baf06 	br	44180 <__alt_data_end+0xfffd2180>
   452c4:	d8c02e17 	ldw	r3,184(sp)
   452c8:	d9002e17 	ldw	r4,184(sp)
   452cc:	d9402e17 	ldw	r5,184(sp)
   452d0:	18c00017 	ldw	r3,0(r3)
   452d4:	21000117 	ldw	r4,4(r4)
   452d8:	29400204 	addi	r5,r5,8
   452dc:	d8c03615 	stw	r3,216(sp)
   452e0:	d9003815 	stw	r4,224(sp)
   452e4:	d9402e15 	stw	r5,184(sp)
   452e8:	003b5006 	br	4402c <__alt_data_end+0xfffd202c>
   452ec:	ac400007 	ldb	r17,0(r21)
   452f0:	003a2806 	br	43b94 <__alt_data_end+0xfffd1b94>
   452f4:	9080100c 	andi	r2,r18,64
   452f8:	1000a826 	beq	r2,zero,4559c <___vfprintf_internal_r+0x1b90>
   452fc:	d8c02e17 	ldw	r3,184(sp)
   45300:	002d883a 	mov	r22,zero
   45304:	1cc0000b 	ldhu	r19,0(r3)
   45308:	18c00104 	addi	r3,r3,4
   4530c:	d8c02e15 	stw	r3,184(sp)
   45310:	003caf06 	br	445d0 <__alt_data_end+0xfffd25d0>
   45314:	d9002e17 	ldw	r4,184(sp)
   45318:	d9402a17 	ldw	r5,168(sp)
   4531c:	002d883a 	mov	r22,zero
   45320:	20800104 	addi	r2,r4,4
   45324:	24c00017 	ldw	r19,0(r4)
   45328:	283ebb0e 	bge	r5,zero,44e18 <__alt_data_end+0xfffd2e18>
   4532c:	003ef106 	br	44ef4 <__alt_data_end+0xfffd2ef4>
   45330:	9080040c 	andi	r2,r18,16
   45334:	1000921e 	bne	r2,zero,45580 <___vfprintf_internal_r+0x1b74>
   45338:	9480100c 	andi	r18,r18,64
   4533c:	90013926 	beq	r18,zero,45824 <___vfprintf_internal_r+0x1e18>
   45340:	d9402e17 	ldw	r5,184(sp)
   45344:	d8c02f17 	ldw	r3,188(sp)
   45348:	28800017 	ldw	r2,0(r5)
   4534c:	29400104 	addi	r5,r5,4
   45350:	d9402e15 	stw	r5,184(sp)
